(dp1
S'wheel'
p2
(lp3
ccopy_reg
_reconstructor
p4
(cnetworkx.classes.graph
Graph
p5
c__builtin__
object
p6
NtRp7
(dp8
S'node'
p9
(dp10
I0
(dp11
sI1
(dp12
sI2
(dp13
sI3
(dp14
sI4
(dp15
sI5
(dp16
sI6
(dp17
sI7
(dp18
sI8
(dp19
sI9
(dp20
sI10
(dp21
sI11
(dp22
sI12
(dp23
sI13
(dp24
sI14
(dp25
sI15
(dp26
sI16
(dp27
sI17
(dp28
sI18
(dp29
sI19
(dp30
sI20
(dp31
sI21
(dp32
sI22
(dp33
sI23
(dp34
sI24
(dp35
sI25
(dp36
sI26
(dp37
sI27
(dp38
sI28
(dp39
sI29
(dp40
sI30
(dp41
sI31
(dp42
sI32
(dp43
sI33
(dp44
sI34
(dp45
sI35
(dp46
sI36
(dp47
sI37
(dp48
sI38
(dp49
sI39
(dp50
sI40
(dp51
sI41
(dp52
sI42
(dp53
sI43
(dp54
sI44
(dp55
sI45
(dp56
sI46
(dp57
sI47
(dp58
sI48
(dp59
sI49
(dp60
sI50
(dp61
sI51
(dp62
sI52
(dp63
sI53
(dp64
sI54
(dp65
sI55
(dp66
sI56
(dp67
sI57
(dp68
sI58
(dp69
sI59
(dp70
sI60
(dp71
sI61
(dp72
sI62
(dp73
sI63
(dp74
sI64
(dp75
sI65
(dp76
sI66
(dp77
sI67
(dp78
sI68
(dp79
sI69
(dp80
sI70
(dp81
sI71
(dp82
sI72
(dp83
sI73
(dp84
sI74
(dp85
sI75
(dp86
sI76
(dp87
sI77
(dp88
sI78
(dp89
sI79
(dp90
sI80
(dp91
sI81
(dp92
sI82
(dp93
sI83
(dp94
sI84
(dp95
sI85
(dp96
sI86
(dp97
sI87
(dp98
sI88
(dp99
sI89
(dp100
sI90
(dp101
sI91
(dp102
sI92
(dp103
sI93
(dp104
sI94
(dp105
sI95
(dp106
sI96
(dp107
sI97
(dp108
sI98
(dp109
sI99
(dp110
ssS'graph'
p111
(dp112
S'name'
p113
S'wheel_graph(100)'
p114
ssS'edge'
p115
(dp116
I0
(dp117
I1
(dp118
sI2
(dp119
sI3
(dp120
sI4
(dp121
sI5
(dp122
sI6
(dp123
sI7
(dp124
sI8
(dp125
sI9
(dp126
sI10
(dp127
sI11
(dp128
sI12
(dp129
sI13
(dp130
sI14
(dp131
sI15
(dp132
sI16
(dp133
sI17
(dp134
sI18
(dp135
sI19
(dp136
sI20
(dp137
sI21
(dp138
sI22
(dp139
sI23
(dp140
sI24
(dp141
sI25
(dp142
sI26
(dp143
sI27
(dp144
sI28
(dp145
sI29
(dp146
sI30
(dp147
sI31
(dp148
sI32
(dp149
sI33
(dp150
sI34
(dp151
sI35
(dp152
sI36
(dp153
sI37
(dp154
sI38
(dp155
sI39
(dp156
sI40
(dp157
sI41
(dp158
sI42
(dp159
sI43
(dp160
sI44
(dp161
sI45
(dp162
sI46
(dp163
sI47
(dp164
sI48
(dp165
sI49
(dp166
sI50
(dp167
sI51
(dp168
sI52
(dp169
sI53
(dp170
sI54
(dp171
sI55
(dp172
sI56
(dp173
sI57
(dp174
sI58
(dp175
sI59
(dp176
sI60
(dp177
sI61
(dp178
sI62
(dp179
sI63
(dp180
sI64
(dp181
sI65
(dp182
sI66
(dp183
sI67
(dp184
sI68
(dp185
sI69
(dp186
sI70
(dp187
sI71
(dp188
sI72
(dp189
sI73
(dp190
sI74
(dp191
sI75
(dp192
sI76
(dp193
sI77
(dp194
sI78
(dp195
sI79
(dp196
sI80
(dp197
sI81
(dp198
sI82
(dp199
sI83
(dp200
sI84
(dp201
sI85
(dp202
sI86
(dp203
sI87
(dp204
sI88
(dp205
sI89
(dp206
sI90
(dp207
sI91
(dp208
sI92
(dp209
sI93
(dp210
sI94
(dp211
sI95
(dp212
sI96
(dp213
sI97
(dp214
sI98
(dp215
sI99
(dp216
ssI1
(dp217
I0
g118
sI2
(dp218
sI99
(dp219
ssI2
(dp220
I0
g119
sI1
g218
sI3
(dp221
ssI3
(dp222
I0
g120
sI2
g221
sI4
(dp223
ssI4
(dp224
I0
g121
sI3
g223
sI5
(dp225
ssI5
(dp226
I0
g122
sI4
g225
sI6
(dp227
ssI6
(dp228
I0
g123
sI5
g227
sI7
(dp229
ssI7
(dp230
I0
g124
sI8
(dp231
sI6
g229
ssI8
(dp232
I0
g125
sI9
(dp233
sI7
g231
ssI9
(dp234
I0
g126
sI8
g233
sI10
(dp235
ssI10
(dp236
I0
g127
sI9
g235
sI11
(dp237
ssI11
(dp238
I0
g128
sI10
g237
sI12
(dp239
ssI12
(dp240
I0
g129
sI11
g239
sI13
(dp241
ssI13
(dp242
I0
g130
sI12
g241
sI14
(dp243
ssI14
(dp244
I0
g131
sI13
g243
sI15
(dp245
ssI15
(dp246
I0
g132
sI16
(dp247
sI14
g245
ssI16
(dp248
I0
g133
sI17
(dp249
sI15
g247
ssI17
(dp250
I0
g134
sI16
g249
sI18
(dp251
ssI18
(dp252
I0
g135
sI17
g251
sI19
(dp253
ssI19
(dp254
I0
g136
sI18
g253
sI20
(dp255
ssI20
(dp256
I0
g137
sI19
g255
sI21
(dp257
ssI21
(dp258
I0
g138
sI20
g257
sI22
(dp259
ssI22
(dp260
I0
g139
sI21
g259
sI23
(dp261
ssI23
(dp262
I0
g140
sI24
(dp263
sI22
g261
ssI24
(dp264
I0
g141
sI25
(dp265
sI23
g263
ssI25
(dp266
I0
g142
sI24
g265
sI26
(dp267
ssI26
(dp268
I0
g143
sI25
g267
sI27
(dp269
ssI27
(dp270
I0
g144
sI26
g269
sI28
(dp271
ssI28
(dp272
I0
g145
sI27
g271
sI29
(dp273
ssI29
(dp274
I0
g146
sI28
g273
sI30
(dp275
ssI30
(dp276
I0
g147
sI29
g275
sI31
(dp277
ssI31
(dp278
I0
g148
sI32
(dp279
sI30
g277
ssI32
(dp280
I0
g149
sI33
(dp281
sI31
g279
ssI33
(dp282
I0
g150
sI32
g281
sI34
(dp283
ssI34
(dp284
I0
g151
sI33
g283
sI35
(dp285
ssI35
(dp286
I0
g152
sI34
g285
sI36
(dp287
ssI36
(dp288
I0
g153
sI35
g287
sI37
(dp289
ssI37
(dp290
I0
g154
sI36
g289
sI38
(dp291
ssI38
(dp292
I0
g155
sI37
g291
sI39
(dp293
ssI39
(dp294
I0
g156
sI40
(dp295
sI38
g293
ssI40
(dp296
I0
g157
sI41
(dp297
sI39
g295
ssI41
(dp298
I0
g158
sI40
g297
sI42
(dp299
ssI42
(dp300
I0
g159
sI41
g299
sI43
(dp301
ssI43
(dp302
I0
g160
sI42
g301
sI44
(dp303
ssI44
(dp304
I0
g161
sI43
g303
sI45
(dp305
ssI45
(dp306
I0
g162
sI44
g305
sI46
(dp307
ssI46
(dp308
I0
g163
sI45
g307
sI47
(dp309
ssI47
(dp310
I0
g164
sI48
(dp311
sI46
g309
ssI48
(dp312
I0
g165
sI49
(dp313
sI47
g311
ssI49
(dp314
I0
g166
sI48
g313
sI50
(dp315
ssI50
(dp316
I0
g167
sI49
g315
sI51
(dp317
ssI51
(dp318
I0
g168
sI50
g317
sI52
(dp319
ssI52
(dp320
I0
g169
sI51
g319
sI53
(dp321
ssI53
(dp322
I0
g170
sI52
g321
sI54
(dp323
ssI54
(dp324
I0
g171
sI53
g323
sI55
(dp325
ssI55
(dp326
I0
g172
sI56
(dp327
sI54
g325
ssI56
(dp328
I0
g173
sI57
(dp329
sI55
g327
ssI57
(dp330
I0
g174
sI56
g329
sI58
(dp331
ssI58
(dp332
I0
g175
sI57
g331
sI59
(dp333
ssI59
(dp334
I0
g176
sI58
g333
sI60
(dp335
ssI60
(dp336
I0
g177
sI59
g335
sI61
(dp337
ssI61
(dp338
I0
g178
sI60
g337
sI62
(dp339
ssI62
(dp340
I0
g179
sI61
g339
sI63
(dp341
ssI63
(dp342
I0
g180
sI64
(dp343
sI62
g341
ssI64
(dp344
I0
g181
sI65
(dp345
sI63
g343
ssI65
(dp346
I0
g182
sI64
g345
sI66
(dp347
ssI66
(dp348
I0
g183
sI65
g347
sI67
(dp349
ssI67
(dp350
I0
g184
sI66
g349
sI68
(dp351
ssI68
(dp352
I0
g185
sI67
g351
sI69
(dp353
ssI69
(dp354
I0
g186
sI68
g353
sI70
(dp355
ssI70
(dp356
I0
g187
sI69
g355
sI71
(dp357
ssI71
(dp358
I0
g188
sI72
(dp359
sI70
g357
ssI72
(dp360
I0
g189
sI73
(dp361
sI71
g359
ssI73
(dp362
I0
g190
sI72
g361
sI74
(dp363
ssI74
(dp364
I0
g191
sI73
g363
sI75
(dp365
ssI75
(dp366
I0
g192
sI74
g365
sI76
(dp367
ssI76
(dp368
I0
g193
sI75
g367
sI77
(dp369
ssI77
(dp370
I0
g194
sI76
g369
sI78
(dp371
ssI78
(dp372
I0
g195
sI77
g371
sI79
(dp373
ssI79
(dp374
I0
g196
sI80
(dp375
sI78
g373
ssI80
(dp376
I0
g197
sI81
(dp377
sI79
g375
ssI81
(dp378
I0
g198
sI80
g377
sI82
(dp379
ssI82
(dp380
I0
g199
sI81
g379
sI83
(dp381
ssI83
(dp382
I0
g200
sI82
g381
sI84
(dp383
ssI84
(dp384
I0
g201
sI83
g383
sI85
(dp385
ssI85
(dp386
I0
g202
sI84
g385
sI86
(dp387
ssI86
(dp388
I0
g203
sI85
g387
sI87
(dp389
ssI87
(dp390
I0
g204
sI88
(dp391
sI86
g389
ssI88
(dp392
I0
g205
sI89
(dp393
sI87
g391
ssI89
(dp394
I0
g206
sI88
g393
sI90
(dp395
ssI90
(dp396
I0
g207
sI89
g395
sI91
(dp397
ssI91
(dp398
I0
g208
sI90
g397
sI92
(dp399
ssI92
(dp400
I0
g209
sI91
g399
sI93
(dp401
ssI93
(dp402
I0
g210
sI92
g401
sI94
(dp403
ssI94
(dp404
I0
g211
sI93
g403
sI95
(dp405
ssI95
(dp406
I0
g212
sI96
(dp407
sI94
g405
ssI96
(dp408
I0
g213
sI97
(dp409
sI95
g407
ssI97
(dp410
I0
g214
sI96
g409
sI98
(dp411
ssI98
(dp412
I0
g215
sI97
g411
sI99
(dp413
ssI99
(dp414
I0
g216
sI1
g219
sI98
g413
sssS'adj'
p415
g116
sbasS'path'
p416
(lp417
g4
(g5
g6
NtRp418
(dp419
g9
(dp420
I0
(dp421
sI1
(dp422
sI2
(dp423
sI3
(dp424
sI4
(dp425
sI5
(dp426
sI6
(dp427
sI7
(dp428
sI8
(dp429
sI9
(dp430
sI10
(dp431
sI11
(dp432
sI12
(dp433
sI13
(dp434
sI14
(dp435
sI15
(dp436
sI16
(dp437
sI17
(dp438
sI18
(dp439
sI19
(dp440
sI20
(dp441
sI21
(dp442
sI22
(dp443
sI23
(dp444
sI24
(dp445
sI25
(dp446
sI26
(dp447
sI27
(dp448
sI28
(dp449
sI29
(dp450
sI30
(dp451
sI31
(dp452
sI32
(dp453
sI33
(dp454
sI34
(dp455
sI35
(dp456
sI36
(dp457
sI37
(dp458
sI38
(dp459
sI39
(dp460
sI40
(dp461
sI41
(dp462
sI42
(dp463
sI43
(dp464
sI44
(dp465
sI45
(dp466
sI46
(dp467
sI47
(dp468
sI48
(dp469
sI49
(dp470
sI50
(dp471
sI51
(dp472
sI52
(dp473
sI53
(dp474
sI54
(dp475
sI55
(dp476
sI56
(dp477
sI57
(dp478
sI58
(dp479
sI59
(dp480
sI60
(dp481
sI61
(dp482
sI62
(dp483
sI63
(dp484
sI64
(dp485
sI65
(dp486
sI66
(dp487
sI67
(dp488
sI68
(dp489
sI69
(dp490
sI70
(dp491
sI71
(dp492
sI72
(dp493
sI73
(dp494
sI74
(dp495
sI75
(dp496
sI76
(dp497
sI77
(dp498
sI78
(dp499
sI79
(dp500
sI80
(dp501
sI81
(dp502
sI82
(dp503
sI83
(dp504
sI84
(dp505
sI85
(dp506
sI86
(dp507
sI87
(dp508
sI88
(dp509
sI89
(dp510
sI90
(dp511
sI91
(dp512
sI92
(dp513
sI93
(dp514
sI94
(dp515
sI95
(dp516
sI96
(dp517
sI97
(dp518
sI98
(dp519
sI99
(dp520
ssg111
(dp521
S'name'
p522
S'path_graph(100)'
p523
ssg115
(dp524
I0
(dp525
I1
(dp526
ssI1
(dp527
I0
g526
sI2
(dp528
ssI2
(dp529
I1
g528
sI3
(dp530
ssI3
(dp531
I2
g530
sI4
(dp532
ssI4
(dp533
I3
g532
sI5
(dp534
ssI5
(dp535
I4
g534
sI6
(dp536
ssI6
(dp537
I5
g536
sI7
(dp538
ssI7
(dp539
I8
(dp540
sI6
g538
ssI8
(dp541
I9
(dp542
sI7
g540
ssI9
(dp543
I8
g542
sI10
(dp544
ssI10
(dp545
I9
g544
sI11
(dp546
ssI11
(dp547
I10
g546
sI12
(dp548
ssI12
(dp549
I11
g548
sI13
(dp550
ssI13
(dp551
I12
g550
sI14
(dp552
ssI14
(dp553
I13
g552
sI15
(dp554
ssI15
(dp555
I16
(dp556
sI14
g554
ssI16
(dp557
I17
(dp558
sI15
g556
ssI17
(dp559
I16
g558
sI18
(dp560
ssI18
(dp561
I17
g560
sI19
(dp562
ssI19
(dp563
I18
g562
sI20
(dp564
ssI20
(dp565
I19
g564
sI21
(dp566
ssI21
(dp567
I20
g566
sI22
(dp568
ssI22
(dp569
I21
g568
sI23
(dp570
ssI23
(dp571
I24
(dp572
sI22
g570
ssI24
(dp573
I25
(dp574
sI23
g572
ssI25
(dp575
I24
g574
sI26
(dp576
ssI26
(dp577
I25
g576
sI27
(dp578
ssI27
(dp579
I26
g578
sI28
(dp580
ssI28
(dp581
I27
g580
sI29
(dp582
ssI29
(dp583
I28
g582
sI30
(dp584
ssI30
(dp585
I29
g584
sI31
(dp586
ssI31
(dp587
I32
(dp588
sI30
g586
ssI32
(dp589
I33
(dp590
sI31
g588
ssI33
(dp591
I32
g590
sI34
(dp592
ssI34
(dp593
I33
g592
sI35
(dp594
ssI35
(dp595
I34
g594
sI36
(dp596
ssI36
(dp597
I35
g596
sI37
(dp598
ssI37
(dp599
I36
g598
sI38
(dp600
ssI38
(dp601
I37
g600
sI39
(dp602
ssI39
(dp603
I40
(dp604
sI38
g602
ssI40
(dp605
I41
(dp606
sI39
g604
ssI41
(dp607
I40
g606
sI42
(dp608
ssI42
(dp609
I41
g608
sI43
(dp610
ssI43
(dp611
I42
g610
sI44
(dp612
ssI44
(dp613
I43
g612
sI45
(dp614
ssI45
(dp615
I44
g614
sI46
(dp616
ssI46
(dp617
I45
g616
sI47
(dp618
ssI47
(dp619
I48
(dp620
sI46
g618
ssI48
(dp621
I49
(dp622
sI47
g620
ssI49
(dp623
I48
g622
sI50
(dp624
ssI50
(dp625
I49
g624
sI51
(dp626
ssI51
(dp627
I50
g626
sI52
(dp628
ssI52
(dp629
I51
g628
sI53
(dp630
ssI53
(dp631
I52
g630
sI54
(dp632
ssI54
(dp633
I53
g632
sI55
(dp634
ssI55
(dp635
I56
(dp636
sI54
g634
ssI56
(dp637
I57
(dp638
sI55
g636
ssI57
(dp639
I56
g638
sI58
(dp640
ssI58
(dp641
I57
g640
sI59
(dp642
ssI59
(dp643
I58
g642
sI60
(dp644
ssI60
(dp645
I59
g644
sI61
(dp646
ssI61
(dp647
I60
g646
sI62
(dp648
ssI62
(dp649
I61
g648
sI63
(dp650
ssI63
(dp651
I64
(dp652
sI62
g650
ssI64
(dp653
I65
(dp654
sI63
g652
ssI65
(dp655
I64
g654
sI66
(dp656
ssI66
(dp657
I65
g656
sI67
(dp658
ssI67
(dp659
I66
g658
sI68
(dp660
ssI68
(dp661
I67
g660
sI69
(dp662
ssI69
(dp663
I68
g662
sI70
(dp664
ssI70
(dp665
I69
g664
sI71
(dp666
ssI71
(dp667
I72
(dp668
sI70
g666
ssI72
(dp669
I73
(dp670
sI71
g668
ssI73
(dp671
I72
g670
sI74
(dp672
ssI74
(dp673
I73
g672
sI75
(dp674
ssI75
(dp675
I74
g674
sI76
(dp676
ssI76
(dp677
I75
g676
sI77
(dp678
ssI77
(dp679
I76
g678
sI78
(dp680
ssI78
(dp681
I77
g680
sI79
(dp682
ssI79
(dp683
I80
(dp684
sI78
g682
ssI80
(dp685
I81
(dp686
sI79
g684
ssI81
(dp687
I80
g686
sI82
(dp688
ssI82
(dp689
I81
g688
sI83
(dp690
ssI83
(dp691
I82
g690
sI84
(dp692
ssI84
(dp693
I83
g692
sI85
(dp694
ssI85
(dp695
I84
g694
sI86
(dp696
ssI86
(dp697
I85
g696
sI87
(dp698
ssI87
(dp699
I88
(dp700
sI86
g698
ssI88
(dp701
I89
(dp702
sI87
g700
ssI89
(dp703
I88
g702
sI90
(dp704
ssI90
(dp705
I89
g704
sI91
(dp706
ssI91
(dp707
I90
g706
sI92
(dp708
ssI92
(dp709
I91
g708
sI93
(dp710
ssI93
(dp711
I92
g710
sI94
(dp712
ssI94
(dp713
I93
g712
sI95
(dp714
ssI95
(dp715
I96
(dp716
sI94
g714
ssI96
(dp717
I97
(dp718
sI95
g716
ssI97
(dp719
I96
g718
sI98
(dp720
ssI98
(dp721
I97
g720
sI99
(dp722
ssI99
(dp723
I98
g722
sssg415
g524
sbasS'star'
p724
(lp725
g4
(g5
g6
NtRp726
(dp727
g9
(dp728
I0
(dp729
sI1
(dp730
sI2
(dp731
sI3
(dp732
sI4
(dp733
sI5
(dp734
sI6
(dp735
sI7
(dp736
sI8
(dp737
sI9
(dp738
sI10
(dp739
sI11
(dp740
sI12
(dp741
sI13
(dp742
sI14
(dp743
sI15
(dp744
sI16
(dp745
sI17
(dp746
sI18
(dp747
sI19
(dp748
sI20
(dp749
sI21
(dp750
sI22
(dp751
sI23
(dp752
sI24
(dp753
sI25
(dp754
sI26
(dp755
sI27
(dp756
sI28
(dp757
sI29
(dp758
sI30
(dp759
sI31
(dp760
sI32
(dp761
sI33
(dp762
sI34
(dp763
sI35
(dp764
sI36
(dp765
sI37
(dp766
sI38
(dp767
sI39
(dp768
sI40
(dp769
sI41
(dp770
sI42
(dp771
sI43
(dp772
sI44
(dp773
sI45
(dp774
sI46
(dp775
sI47
(dp776
sI48
(dp777
sI49
(dp778
sI50
(dp779
sI51
(dp780
sI52
(dp781
sI53
(dp782
sI54
(dp783
sI55
(dp784
sI56
(dp785
sI57
(dp786
sI58
(dp787
sI59
(dp788
sI60
(dp789
sI61
(dp790
sI62
(dp791
sI63
(dp792
sI64
(dp793
sI65
(dp794
sI66
(dp795
sI67
(dp796
sI68
(dp797
sI69
(dp798
sI70
(dp799
sI71
(dp800
sI72
(dp801
sI73
(dp802
sI74
(dp803
sI75
(dp804
sI76
(dp805
sI77
(dp806
sI78
(dp807
sI79
(dp808
sI80
(dp809
sI81
(dp810
sI82
(dp811
sI83
(dp812
sI84
(dp813
sI85
(dp814
sI86
(dp815
sI87
(dp816
sI88
(dp817
sI89
(dp818
sI90
(dp819
sI91
(dp820
sI92
(dp821
sI93
(dp822
sI94
(dp823
sI95
(dp824
sI96
(dp825
sI97
(dp826
sI98
(dp827
sI99
(dp828
ssg111
(dp829
g113
S'star_graph(99)'
p830
ssg115
(dp831
I0
(dp832
I1
(dp833
sI2
(dp834
sI3
(dp835
sI4
(dp836
sI5
(dp837
sI6
(dp838
sI7
(dp839
sI8
(dp840
sI9
(dp841
sI10
(dp842
sI11
(dp843
sI12
(dp844
sI13
(dp845
sI14
(dp846
sI15
(dp847
sI16
(dp848
sI17
(dp849
sI18
(dp850
sI19
(dp851
sI20
(dp852
sI21
(dp853
sI22
(dp854
sI23
(dp855
sI24
(dp856
sI25
(dp857
sI26
(dp858
sI27
(dp859
sI28
(dp860
sI29
(dp861
sI30
(dp862
sI31
(dp863
sI32
(dp864
sI33
(dp865
sI34
(dp866
sI35
(dp867
sI36
(dp868
sI37
(dp869
sI38
(dp870
sI39
(dp871
sI40
(dp872
sI41
(dp873
sI42
(dp874
sI43
(dp875
sI44
(dp876
sI45
(dp877
sI46
(dp878
sI47
(dp879
sI48
(dp880
sI49
(dp881
sI50
(dp882
sI51
(dp883
sI52
(dp884
sI53
(dp885
sI54
(dp886
sI55
(dp887
sI56
(dp888
sI57
(dp889
sI58
(dp890
sI59
(dp891
sI60
(dp892
sI61
(dp893
sI62
(dp894
sI63
(dp895
sI64
(dp896
sI65
(dp897
sI66
(dp898
sI67
(dp899
sI68
(dp900
sI69
(dp901
sI70
(dp902
sI71
(dp903
sI72
(dp904
sI73
(dp905
sI74
(dp906
sI75
(dp907
sI76
(dp908
sI77
(dp909
sI78
(dp910
sI79
(dp911
sI80
(dp912
sI81
(dp913
sI82
(dp914
sI83
(dp915
sI84
(dp916
sI85
(dp917
sI86
(dp918
sI87
(dp919
sI88
(dp920
sI89
(dp921
sI90
(dp922
sI91
(dp923
sI92
(dp924
sI93
(dp925
sI94
(dp926
sI95
(dp927
sI96
(dp928
sI97
(dp929
sI98
(dp930
sI99
(dp931
ssI1
(dp932
I0
g833
ssI2
(dp933
I0
g834
ssI3
(dp934
I0
g835
ssI4
(dp935
I0
g836
ssI5
(dp936
I0
g837
ssI6
(dp937
I0
g838
ssI7
(dp938
I0
g839
ssI8
(dp939
I0
g840
ssI9
(dp940
I0
g841
ssI10
(dp941
I0
g842
ssI11
(dp942
I0
g843
ssI12
(dp943
I0
g844
ssI13
(dp944
I0
g845
ssI14
(dp945
I0
g846
ssI15
(dp946
I0
g847
ssI16
(dp947
I0
g848
ssI17
(dp948
I0
g849
ssI18
(dp949
I0
g850
ssI19
(dp950
I0
g851
ssI20
(dp951
I0
g852
ssI21
(dp952
I0
g853
ssI22
(dp953
I0
g854
ssI23
(dp954
I0
g855
ssI24
(dp955
I0
g856
ssI25
(dp956
I0
g857
ssI26
(dp957
I0
g858
ssI27
(dp958
I0
g859
ssI28
(dp959
I0
g860
ssI29
(dp960
I0
g861
ssI30
(dp961
I0
g862
ssI31
(dp962
I0
g863
ssI32
(dp963
I0
g864
ssI33
(dp964
I0
g865
ssI34
(dp965
I0
g866
ssI35
(dp966
I0
g867
ssI36
(dp967
I0
g868
ssI37
(dp968
I0
g869
ssI38
(dp969
I0
g870
ssI39
(dp970
I0
g871
ssI40
(dp971
I0
g872
ssI41
(dp972
I0
g873
ssI42
(dp973
I0
g874
ssI43
(dp974
I0
g875
ssI44
(dp975
I0
g876
ssI45
(dp976
I0
g877
ssI46
(dp977
I0
g878
ssI47
(dp978
I0
g879
ssI48
(dp979
I0
g880
ssI49
(dp980
I0
g881
ssI50
(dp981
I0
g882
ssI51
(dp982
I0
g883
ssI52
(dp983
I0
g884
ssI53
(dp984
I0
g885
ssI54
(dp985
I0
g886
ssI55
(dp986
I0
g887
ssI56
(dp987
I0
g888
ssI57
(dp988
I0
g889
ssI58
(dp989
I0
g890
ssI59
(dp990
I0
g891
ssI60
(dp991
I0
g892
ssI61
(dp992
I0
g893
ssI62
(dp993
I0
g894
ssI63
(dp994
I0
g895
ssI64
(dp995
I0
g896
ssI65
(dp996
I0
g897
ssI66
(dp997
I0
g898
ssI67
(dp998
I0
g899
ssI68
(dp999
I0
g900
ssI69
(dp1000
I0
g901
ssI70
(dp1001
I0
g902
ssI71
(dp1002
I0
g903
ssI72
(dp1003
I0
g904
ssI73
(dp1004
I0
g905
ssI74
(dp1005
I0
g906
ssI75
(dp1006
I0
g907
ssI76
(dp1007
I0
g908
ssI77
(dp1008
I0
g909
ssI78
(dp1009
I0
g910
ssI79
(dp1010
I0
g911
ssI80
(dp1011
I0
g912
ssI81
(dp1012
I0
g913
ssI82
(dp1013
I0
g914
ssI83
(dp1014
I0
g915
ssI84
(dp1015
I0
g916
ssI85
(dp1016
I0
g917
ssI86
(dp1017
I0
g918
ssI87
(dp1018
I0
g919
ssI88
(dp1019
I0
g920
ssI89
(dp1020
I0
g921
ssI90
(dp1021
I0
g922
ssI91
(dp1022
I0
g923
ssI92
(dp1023
I0
g924
ssI93
(dp1024
I0
g925
ssI94
(dp1025
I0
g926
ssI95
(dp1026
I0
g927
ssI96
(dp1027
I0
g928
ssI97
(dp1028
I0
g929
ssI98
(dp1029
I0
g930
ssI99
(dp1030
I0
g931
sssg415
g831
sbasS'barbell'
p1031
(lp1032
g4
(g5
g6
NtRp1033
(dp1034
g9
(dp1035
I0
(dp1036
sI1
(dp1037
sI2
(dp1038
sI3
(dp1039
sI4
(dp1040
sI5
(dp1041
sI6
(dp1042
sI7
(dp1043
sI8
(dp1044
sI9
(dp1045
sI10
(dp1046
sI11
(dp1047
sI12
(dp1048
sI13
(dp1049
sI14
(dp1050
sI15
(dp1051
sI16
(dp1052
sI17
(dp1053
sI18
(dp1054
sI19
(dp1055
sI20
(dp1056
sI21
(dp1057
sI22
(dp1058
sI23
(dp1059
sI24
(dp1060
sI25
(dp1061
sI26
(dp1062
sI27
(dp1063
sI28
(dp1064
sI29
(dp1065
sI30
(dp1066
sI31
(dp1067
sI32
(dp1068
sI33
(dp1069
sI34
(dp1070
sI35
(dp1071
sI36
(dp1072
sI37
(dp1073
sI38
(dp1074
sI39
(dp1075
sI40
(dp1076
sI41
(dp1077
sI42
(dp1078
sI43
(dp1079
sI44
(dp1080
sI45
(dp1081
sI46
(dp1082
sI47
(dp1083
sI48
(dp1084
sI49
(dp1085
sI50
(dp1086
sI51
(dp1087
sI52
(dp1088
sI53
(dp1089
sI54
(dp1090
sI55
(dp1091
sI56
(dp1092
sI57
(dp1093
sI58
(dp1094
sI59
(dp1095
sI60
(dp1096
sI61
(dp1097
sI62
(dp1098
sI63
(dp1099
sI64
(dp1100
sI65
(dp1101
sI66
(dp1102
sI67
(dp1103
sI68
(dp1104
sI69
(dp1105
sI70
(dp1106
sI71
(dp1107
sI72
(dp1108
sI73
(dp1109
sI74
(dp1110
sI75
(dp1111
sI76
(dp1112
sI77
(dp1113
sI78
(dp1114
sI79
(dp1115
sI80
(dp1116
sI81
(dp1117
sI82
(dp1118
sI83
(dp1119
sI84
(dp1120
sI85
(dp1121
sI86
(dp1122
sI87
(dp1123
sI88
(dp1124
sI89
(dp1125
sI90
(dp1126
sI91
(dp1127
sI92
(dp1128
sI93
(dp1129
sI94
(dp1130
sI95
(dp1131
sI96
(dp1132
sI97
(dp1133
sI98
(dp1134
sI99
(dp1135
ssg111
(dp1136
g113
S'barbell_graph(50,0)'
p1137
ssg115
(dp1138
I0
(dp1139
I1
(dp1140
sI2
(dp1141
sI3
(dp1142
sI4
(dp1143
sI5
(dp1144
sI6
(dp1145
sI7
(dp1146
sI8
(dp1147
sI9
(dp1148
sI10
(dp1149
sI11
(dp1150
sI12
(dp1151
sI13
(dp1152
sI14
(dp1153
sI15
(dp1154
sI16
(dp1155
sI17
(dp1156
sI18
(dp1157
sI19
(dp1158
sI20
(dp1159
sI21
(dp1160
sI22
(dp1161
sI23
(dp1162
sI24
(dp1163
sI25
(dp1164
sI26
(dp1165
sI27
(dp1166
sI28
(dp1167
sI29
(dp1168
sI30
(dp1169
sI31
(dp1170
sI32
(dp1171
sI33
(dp1172
sI34
(dp1173
sI35
(dp1174
sI36
(dp1175
sI37
(dp1176
sI38
(dp1177
sI39
(dp1178
sI40
(dp1179
sI41
(dp1180
sI42
(dp1181
sI43
(dp1182
sI44
(dp1183
sI45
(dp1184
sI46
(dp1185
sI47
(dp1186
sI48
(dp1187
sI49
(dp1188
ssI1
(dp1189
I0
g1140
sI2
(dp1190
sI3
(dp1191
sI4
(dp1192
sI5
(dp1193
sI6
(dp1194
sI7
(dp1195
sI8
(dp1196
sI9
(dp1197
sI10
(dp1198
sI11
(dp1199
sI12
(dp1200
sI13
(dp1201
sI14
(dp1202
sI15
(dp1203
sI16
(dp1204
sI17
(dp1205
sI18
(dp1206
sI19
(dp1207
sI20
(dp1208
sI21
(dp1209
sI22
(dp1210
sI23
(dp1211
sI24
(dp1212
sI25
(dp1213
sI26
(dp1214
sI27
(dp1215
sI28
(dp1216
sI29
(dp1217
sI30
(dp1218
sI31
(dp1219
sI32
(dp1220
sI33
(dp1221
sI34
(dp1222
sI35
(dp1223
sI36
(dp1224
sI37
(dp1225
sI38
(dp1226
sI39
(dp1227
sI40
(dp1228
sI41
(dp1229
sI42
(dp1230
sI43
(dp1231
sI44
(dp1232
sI45
(dp1233
sI46
(dp1234
sI47
(dp1235
sI48
(dp1236
sI49
(dp1237
ssI2
(dp1238
I0
g1141
sI1
g1190
sI3
(dp1239
sI4
(dp1240
sI5
(dp1241
sI6
(dp1242
sI7
(dp1243
sI8
(dp1244
sI9
(dp1245
sI10
(dp1246
sI11
(dp1247
sI12
(dp1248
sI13
(dp1249
sI14
(dp1250
sI15
(dp1251
sI16
(dp1252
sI17
(dp1253
sI18
(dp1254
sI19
(dp1255
sI20
(dp1256
sI21
(dp1257
sI22
(dp1258
sI23
(dp1259
sI24
(dp1260
sI25
(dp1261
sI26
(dp1262
sI27
(dp1263
sI28
(dp1264
sI29
(dp1265
sI30
(dp1266
sI31
(dp1267
sI32
(dp1268
sI33
(dp1269
sI34
(dp1270
sI35
(dp1271
sI36
(dp1272
sI37
(dp1273
sI38
(dp1274
sI39
(dp1275
sI40
(dp1276
sI41
(dp1277
sI42
(dp1278
sI43
(dp1279
sI44
(dp1280
sI45
(dp1281
sI46
(dp1282
sI47
(dp1283
sI48
(dp1284
sI49
(dp1285
ssI3
(dp1286
I0
g1142
sI1
g1191
sI2
g1239
sI4
(dp1287
sI5
(dp1288
sI6
(dp1289
sI7
(dp1290
sI8
(dp1291
sI9
(dp1292
sI10
(dp1293
sI11
(dp1294
sI12
(dp1295
sI13
(dp1296
sI14
(dp1297
sI15
(dp1298
sI16
(dp1299
sI17
(dp1300
sI18
(dp1301
sI19
(dp1302
sI20
(dp1303
sI21
(dp1304
sI22
(dp1305
sI23
(dp1306
sI24
(dp1307
sI25
(dp1308
sI26
(dp1309
sI27
(dp1310
sI28
(dp1311
sI29
(dp1312
sI30
(dp1313
sI31
(dp1314
sI32
(dp1315
sI33
(dp1316
sI34
(dp1317
sI35
(dp1318
sI36
(dp1319
sI37
(dp1320
sI38
(dp1321
sI39
(dp1322
sI40
(dp1323
sI41
(dp1324
sI42
(dp1325
sI43
(dp1326
sI44
(dp1327
sI45
(dp1328
sI46
(dp1329
sI47
(dp1330
sI48
(dp1331
sI49
(dp1332
ssI4
(dp1333
I0
g1143
sI1
g1192
sI2
g1240
sI3
g1287
sI5
(dp1334
sI6
(dp1335
sI7
(dp1336
sI8
(dp1337
sI9
(dp1338
sI10
(dp1339
sI11
(dp1340
sI12
(dp1341
sI13
(dp1342
sI14
(dp1343
sI15
(dp1344
sI16
(dp1345
sI17
(dp1346
sI18
(dp1347
sI19
(dp1348
sI20
(dp1349
sI21
(dp1350
sI22
(dp1351
sI23
(dp1352
sI24
(dp1353
sI25
(dp1354
sI26
(dp1355
sI27
(dp1356
sI28
(dp1357
sI29
(dp1358
sI30
(dp1359
sI31
(dp1360
sI32
(dp1361
sI33
(dp1362
sI34
(dp1363
sI35
(dp1364
sI36
(dp1365
sI37
(dp1366
sI38
(dp1367
sI39
(dp1368
sI40
(dp1369
sI41
(dp1370
sI42
(dp1371
sI43
(dp1372
sI44
(dp1373
sI45
(dp1374
sI46
(dp1375
sI47
(dp1376
sI48
(dp1377
sI49
(dp1378
ssI5
(dp1379
I0
g1144
sI1
g1193
sI2
g1241
sI3
g1288
sI4
g1334
sI6
(dp1380
sI7
(dp1381
sI8
(dp1382
sI9
(dp1383
sI10
(dp1384
sI11
(dp1385
sI12
(dp1386
sI13
(dp1387
sI14
(dp1388
sI15
(dp1389
sI16
(dp1390
sI17
(dp1391
sI18
(dp1392
sI19
(dp1393
sI20
(dp1394
sI21
(dp1395
sI22
(dp1396
sI23
(dp1397
sI24
(dp1398
sI25
(dp1399
sI26
(dp1400
sI27
(dp1401
sI28
(dp1402
sI29
(dp1403
sI30
(dp1404
sI31
(dp1405
sI32
(dp1406
sI33
(dp1407
sI34
(dp1408
sI35
(dp1409
sI36
(dp1410
sI37
(dp1411
sI38
(dp1412
sI39
(dp1413
sI40
(dp1414
sI41
(dp1415
sI42
(dp1416
sI43
(dp1417
sI44
(dp1418
sI45
(dp1419
sI46
(dp1420
sI47
(dp1421
sI48
(dp1422
sI49
(dp1423
ssI6
(dp1424
I0
g1145
sI1
g1194
sI2
g1242
sI3
g1289
sI4
g1335
sI5
g1380
sI7
(dp1425
sI8
(dp1426
sI9
(dp1427
sI10
(dp1428
sI11
(dp1429
sI12
(dp1430
sI13
(dp1431
sI14
(dp1432
sI15
(dp1433
sI16
(dp1434
sI17
(dp1435
sI18
(dp1436
sI19
(dp1437
sI20
(dp1438
sI21
(dp1439
sI22
(dp1440
sI23
(dp1441
sI24
(dp1442
sI25
(dp1443
sI26
(dp1444
sI27
(dp1445
sI28
(dp1446
sI29
(dp1447
sI30
(dp1448
sI31
(dp1449
sI32
(dp1450
sI33
(dp1451
sI34
(dp1452
sI35
(dp1453
sI36
(dp1454
sI37
(dp1455
sI38
(dp1456
sI39
(dp1457
sI40
(dp1458
sI41
(dp1459
sI42
(dp1460
sI43
(dp1461
sI44
(dp1462
sI45
(dp1463
sI46
(dp1464
sI47
(dp1465
sI48
(dp1466
sI49
(dp1467
ssI7
(dp1468
I0
g1146
sI1
g1195
sI2
g1243
sI3
g1290
sI4
g1336
sI5
g1381
sI6
g1425
sI8
(dp1469
sI9
(dp1470
sI10
(dp1471
sI11
(dp1472
sI12
(dp1473
sI13
(dp1474
sI14
(dp1475
sI15
(dp1476
sI16
(dp1477
sI17
(dp1478
sI18
(dp1479
sI19
(dp1480
sI20
(dp1481
sI21
(dp1482
sI22
(dp1483
sI23
(dp1484
sI24
(dp1485
sI25
(dp1486
sI26
(dp1487
sI27
(dp1488
sI28
(dp1489
sI29
(dp1490
sI30
(dp1491
sI31
(dp1492
sI32
(dp1493
sI33
(dp1494
sI34
(dp1495
sI35
(dp1496
sI36
(dp1497
sI37
(dp1498
sI38
(dp1499
sI39
(dp1500
sI40
(dp1501
sI41
(dp1502
sI42
(dp1503
sI43
(dp1504
sI44
(dp1505
sI45
(dp1506
sI46
(dp1507
sI47
(dp1508
sI48
(dp1509
sI49
(dp1510
ssI8
(dp1511
I0
g1147
sI1
g1196
sI2
g1244
sI3
g1291
sI4
g1337
sI5
g1382
sI6
g1426
sI7
g1469
sI9
(dp1512
sI10
(dp1513
sI11
(dp1514
sI12
(dp1515
sI13
(dp1516
sI14
(dp1517
sI15
(dp1518
sI16
(dp1519
sI17
(dp1520
sI18
(dp1521
sI19
(dp1522
sI20
(dp1523
sI21
(dp1524
sI22
(dp1525
sI23
(dp1526
sI24
(dp1527
sI25
(dp1528
sI26
(dp1529
sI27
(dp1530
sI28
(dp1531
sI29
(dp1532
sI30
(dp1533
sI31
(dp1534
sI32
(dp1535
sI33
(dp1536
sI34
(dp1537
sI35
(dp1538
sI36
(dp1539
sI37
(dp1540
sI38
(dp1541
sI39
(dp1542
sI40
(dp1543
sI41
(dp1544
sI42
(dp1545
sI43
(dp1546
sI44
(dp1547
sI45
(dp1548
sI46
(dp1549
sI47
(dp1550
sI48
(dp1551
sI49
(dp1552
ssI9
(dp1553
I0
g1148
sI1
g1197
sI2
g1245
sI3
g1292
sI4
g1338
sI5
g1383
sI6
g1427
sI7
g1470
sI8
g1512
sI10
(dp1554
sI11
(dp1555
sI12
(dp1556
sI13
(dp1557
sI14
(dp1558
sI15
(dp1559
sI16
(dp1560
sI17
(dp1561
sI18
(dp1562
sI19
(dp1563
sI20
(dp1564
sI21
(dp1565
sI22
(dp1566
sI23
(dp1567
sI24
(dp1568
sI25
(dp1569
sI26
(dp1570
sI27
(dp1571
sI28
(dp1572
sI29
(dp1573
sI30
(dp1574
sI31
(dp1575
sI32
(dp1576
sI33
(dp1577
sI34
(dp1578
sI35
(dp1579
sI36
(dp1580
sI37
(dp1581
sI38
(dp1582
sI39
(dp1583
sI40
(dp1584
sI41
(dp1585
sI42
(dp1586
sI43
(dp1587
sI44
(dp1588
sI45
(dp1589
sI46
(dp1590
sI47
(dp1591
sI48
(dp1592
sI49
(dp1593
ssI10
(dp1594
I0
g1149
sI1
g1198
sI2
g1246
sI3
g1293
sI4
g1339
sI5
g1384
sI6
g1428
sI7
g1471
sI8
g1513
sI9
g1554
sI11
(dp1595
sI12
(dp1596
sI13
(dp1597
sI14
(dp1598
sI15
(dp1599
sI16
(dp1600
sI17
(dp1601
sI18
(dp1602
sI19
(dp1603
sI20
(dp1604
sI21
(dp1605
sI22
(dp1606
sI23
(dp1607
sI24
(dp1608
sI25
(dp1609
sI26
(dp1610
sI27
(dp1611
sI28
(dp1612
sI29
(dp1613
sI30
(dp1614
sI31
(dp1615
sI32
(dp1616
sI33
(dp1617
sI34
(dp1618
sI35
(dp1619
sI36
(dp1620
sI37
(dp1621
sI38
(dp1622
sI39
(dp1623
sI40
(dp1624
sI41
(dp1625
sI42
(dp1626
sI43
(dp1627
sI44
(dp1628
sI45
(dp1629
sI46
(dp1630
sI47
(dp1631
sI48
(dp1632
sI49
(dp1633
ssI11
(dp1634
I0
g1150
sI1
g1199
sI2
g1247
sI3
g1294
sI4
g1340
sI5
g1385
sI6
g1429
sI7
g1472
sI8
g1514
sI9
g1555
sI10
g1595
sI12
(dp1635
sI13
(dp1636
sI14
(dp1637
sI15
(dp1638
sI16
(dp1639
sI17
(dp1640
sI18
(dp1641
sI19
(dp1642
sI20
(dp1643
sI21
(dp1644
sI22
(dp1645
sI23
(dp1646
sI24
(dp1647
sI25
(dp1648
sI26
(dp1649
sI27
(dp1650
sI28
(dp1651
sI29
(dp1652
sI30
(dp1653
sI31
(dp1654
sI32
(dp1655
sI33
(dp1656
sI34
(dp1657
sI35
(dp1658
sI36
(dp1659
sI37
(dp1660
sI38
(dp1661
sI39
(dp1662
sI40
(dp1663
sI41
(dp1664
sI42
(dp1665
sI43
(dp1666
sI44
(dp1667
sI45
(dp1668
sI46
(dp1669
sI47
(dp1670
sI48
(dp1671
sI49
(dp1672
ssI12
(dp1673
I0
g1151
sI1
g1200
sI2
g1248
sI3
g1295
sI4
g1341
sI5
g1386
sI6
g1430
sI7
g1473
sI8
g1515
sI9
g1556
sI10
g1596
sI11
g1635
sI13
(dp1674
sI14
(dp1675
sI15
(dp1676
sI16
(dp1677
sI17
(dp1678
sI18
(dp1679
sI19
(dp1680
sI20
(dp1681
sI21
(dp1682
sI22
(dp1683
sI23
(dp1684
sI24
(dp1685
sI25
(dp1686
sI26
(dp1687
sI27
(dp1688
sI28
(dp1689
sI29
(dp1690
sI30
(dp1691
sI31
(dp1692
sI32
(dp1693
sI33
(dp1694
sI34
(dp1695
sI35
(dp1696
sI36
(dp1697
sI37
(dp1698
sI38
(dp1699
sI39
(dp1700
sI40
(dp1701
sI41
(dp1702
sI42
(dp1703
sI43
(dp1704
sI44
(dp1705
sI45
(dp1706
sI46
(dp1707
sI47
(dp1708
sI48
(dp1709
sI49
(dp1710
ssI13
(dp1711
I0
g1152
sI1
g1201
sI2
g1249
sI3
g1296
sI4
g1342
sI5
g1387
sI6
g1431
sI7
g1474
sI8
g1516
sI9
g1557
sI10
g1597
sI11
g1636
sI12
g1674
sI14
(dp1712
sI15
(dp1713
sI16
(dp1714
sI17
(dp1715
sI18
(dp1716
sI19
(dp1717
sI20
(dp1718
sI21
(dp1719
sI22
(dp1720
sI23
(dp1721
sI24
(dp1722
sI25
(dp1723
sI26
(dp1724
sI27
(dp1725
sI28
(dp1726
sI29
(dp1727
sI30
(dp1728
sI31
(dp1729
sI32
(dp1730
sI33
(dp1731
sI34
(dp1732
sI35
(dp1733
sI36
(dp1734
sI37
(dp1735
sI38
(dp1736
sI39
(dp1737
sI40
(dp1738
sI41
(dp1739
sI42
(dp1740
sI43
(dp1741
sI44
(dp1742
sI45
(dp1743
sI46
(dp1744
sI47
(dp1745
sI48
(dp1746
sI49
(dp1747
ssI14
(dp1748
I0
g1153
sI1
g1202
sI2
g1250
sI3
g1297
sI4
g1343
sI5
g1388
sI6
g1432
sI7
g1475
sI8
g1517
sI9
g1558
sI10
g1598
sI11
g1637
sI12
g1675
sI13
g1712
sI15
(dp1749
sI16
(dp1750
sI17
(dp1751
sI18
(dp1752
sI19
(dp1753
sI20
(dp1754
sI21
(dp1755
sI22
(dp1756
sI23
(dp1757
sI24
(dp1758
sI25
(dp1759
sI26
(dp1760
sI27
(dp1761
sI28
(dp1762
sI29
(dp1763
sI30
(dp1764
sI31
(dp1765
sI32
(dp1766
sI33
(dp1767
sI34
(dp1768
sI35
(dp1769
sI36
(dp1770
sI37
(dp1771
sI38
(dp1772
sI39
(dp1773
sI40
(dp1774
sI41
(dp1775
sI42
(dp1776
sI43
(dp1777
sI44
(dp1778
sI45
(dp1779
sI46
(dp1780
sI47
(dp1781
sI48
(dp1782
sI49
(dp1783
ssI15
(dp1784
I0
g1154
sI1
g1203
sI2
g1251
sI3
g1298
sI4
g1344
sI5
g1389
sI6
g1433
sI7
g1476
sI8
g1518
sI9
g1559
sI10
g1599
sI11
g1638
sI12
g1676
sI13
g1713
sI14
g1749
sI16
(dp1785
sI17
(dp1786
sI18
(dp1787
sI19
(dp1788
sI20
(dp1789
sI21
(dp1790
sI22
(dp1791
sI23
(dp1792
sI24
(dp1793
sI25
(dp1794
sI26
(dp1795
sI27
(dp1796
sI28
(dp1797
sI29
(dp1798
sI30
(dp1799
sI31
(dp1800
sI32
(dp1801
sI33
(dp1802
sI34
(dp1803
sI35
(dp1804
sI36
(dp1805
sI37
(dp1806
sI38
(dp1807
sI39
(dp1808
sI40
(dp1809
sI41
(dp1810
sI42
(dp1811
sI43
(dp1812
sI44
(dp1813
sI45
(dp1814
sI46
(dp1815
sI47
(dp1816
sI48
(dp1817
sI49
(dp1818
ssI16
(dp1819
I0
g1155
sI1
g1204
sI2
g1252
sI3
g1299
sI4
g1345
sI5
g1390
sI6
g1434
sI7
g1477
sI8
g1519
sI9
g1560
sI10
g1600
sI11
g1639
sI12
g1677
sI13
g1714
sI14
g1750
sI15
g1785
sI17
(dp1820
sI18
(dp1821
sI19
(dp1822
sI20
(dp1823
sI21
(dp1824
sI22
(dp1825
sI23
(dp1826
sI24
(dp1827
sI25
(dp1828
sI26
(dp1829
sI27
(dp1830
sI28
(dp1831
sI29
(dp1832
sI30
(dp1833
sI31
(dp1834
sI32
(dp1835
sI33
(dp1836
sI34
(dp1837
sI35
(dp1838
sI36
(dp1839
sI37
(dp1840
sI38
(dp1841
sI39
(dp1842
sI40
(dp1843
sI41
(dp1844
sI42
(dp1845
sI43
(dp1846
sI44
(dp1847
sI45
(dp1848
sI46
(dp1849
sI47
(dp1850
sI48
(dp1851
sI49
(dp1852
ssI17
(dp1853
I0
g1156
sI1
g1205
sI2
g1253
sI3
g1300
sI4
g1346
sI5
g1391
sI6
g1435
sI7
g1478
sI8
g1520
sI9
g1561
sI10
g1601
sI11
g1640
sI12
g1678
sI13
g1715
sI14
g1751
sI15
g1786
sI16
g1820
sI18
(dp1854
sI19
(dp1855
sI20
(dp1856
sI21
(dp1857
sI22
(dp1858
sI23
(dp1859
sI24
(dp1860
sI25
(dp1861
sI26
(dp1862
sI27
(dp1863
sI28
(dp1864
sI29
(dp1865
sI30
(dp1866
sI31
(dp1867
sI32
(dp1868
sI33
(dp1869
sI34
(dp1870
sI35
(dp1871
sI36
(dp1872
sI37
(dp1873
sI38
(dp1874
sI39
(dp1875
sI40
(dp1876
sI41
(dp1877
sI42
(dp1878
sI43
(dp1879
sI44
(dp1880
sI45
(dp1881
sI46
(dp1882
sI47
(dp1883
sI48
(dp1884
sI49
(dp1885
ssI18
(dp1886
I0
g1157
sI1
g1206
sI2
g1254
sI3
g1301
sI4
g1347
sI5
g1392
sI6
g1436
sI7
g1479
sI8
g1521
sI9
g1562
sI10
g1602
sI11
g1641
sI12
g1679
sI13
g1716
sI14
g1752
sI15
g1787
sI16
g1821
sI17
g1854
sI19
(dp1887
sI20
(dp1888
sI21
(dp1889
sI22
(dp1890
sI23
(dp1891
sI24
(dp1892
sI25
(dp1893
sI26
(dp1894
sI27
(dp1895
sI28
(dp1896
sI29
(dp1897
sI30
(dp1898
sI31
(dp1899
sI32
(dp1900
sI33
(dp1901
sI34
(dp1902
sI35
(dp1903
sI36
(dp1904
sI37
(dp1905
sI38
(dp1906
sI39
(dp1907
sI40
(dp1908
sI41
(dp1909
sI42
(dp1910
sI43
(dp1911
sI44
(dp1912
sI45
(dp1913
sI46
(dp1914
sI47
(dp1915
sI48
(dp1916
sI49
(dp1917
ssI19
(dp1918
I0
g1158
sI1
g1207
sI2
g1255
sI3
g1302
sI4
g1348
sI5
g1393
sI6
g1437
sI7
g1480
sI8
g1522
sI9
g1563
sI10
g1603
sI11
g1642
sI12
g1680
sI13
g1717
sI14
g1753
sI15
g1788
sI16
g1822
sI17
g1855
sI18
g1887
sI20
(dp1919
sI21
(dp1920
sI22
(dp1921
sI23
(dp1922
sI24
(dp1923
sI25
(dp1924
sI26
(dp1925
sI27
(dp1926
sI28
(dp1927
sI29
(dp1928
sI30
(dp1929
sI31
(dp1930
sI32
(dp1931
sI33
(dp1932
sI34
(dp1933
sI35
(dp1934
sI36
(dp1935
sI37
(dp1936
sI38
(dp1937
sI39
(dp1938
sI40
(dp1939
sI41
(dp1940
sI42
(dp1941
sI43
(dp1942
sI44
(dp1943
sI45
(dp1944
sI46
(dp1945
sI47
(dp1946
sI48
(dp1947
sI49
(dp1948
ssI20
(dp1949
I0
g1159
sI1
g1208
sI2
g1256
sI3
g1303
sI4
g1349
sI5
g1394
sI6
g1438
sI7
g1481
sI8
g1523
sI9
g1564
sI10
g1604
sI11
g1643
sI12
g1681
sI13
g1718
sI14
g1754
sI15
g1789
sI16
g1823
sI17
g1856
sI18
g1888
sI19
g1919
sI21
(dp1950
sI22
(dp1951
sI23
(dp1952
sI24
(dp1953
sI25
(dp1954
sI26
(dp1955
sI27
(dp1956
sI28
(dp1957
sI29
(dp1958
sI30
(dp1959
sI31
(dp1960
sI32
(dp1961
sI33
(dp1962
sI34
(dp1963
sI35
(dp1964
sI36
(dp1965
sI37
(dp1966
sI38
(dp1967
sI39
(dp1968
sI40
(dp1969
sI41
(dp1970
sI42
(dp1971
sI43
(dp1972
sI44
(dp1973
sI45
(dp1974
sI46
(dp1975
sI47
(dp1976
sI48
(dp1977
sI49
(dp1978
ssI21
(dp1979
I0
g1160
sI1
g1209
sI2
g1257
sI3
g1304
sI4
g1350
sI5
g1395
sI6
g1439
sI7
g1482
sI8
g1524
sI9
g1565
sI10
g1605
sI11
g1644
sI12
g1682
sI13
g1719
sI14
g1755
sI15
g1790
sI16
g1824
sI17
g1857
sI18
g1889
sI19
g1920
sI20
g1950
sI22
(dp1980
sI23
(dp1981
sI24
(dp1982
sI25
(dp1983
sI26
(dp1984
sI27
(dp1985
sI28
(dp1986
sI29
(dp1987
sI30
(dp1988
sI31
(dp1989
sI32
(dp1990
sI33
(dp1991
sI34
(dp1992
sI35
(dp1993
sI36
(dp1994
sI37
(dp1995
sI38
(dp1996
sI39
(dp1997
sI40
(dp1998
sI41
(dp1999
sI42
(dp2000
sI43
(dp2001
sI44
(dp2002
sI45
(dp2003
sI46
(dp2004
sI47
(dp2005
sI48
(dp2006
sI49
(dp2007
ssI22
(dp2008
I0
g1161
sI1
g1210
sI2
g1258
sI3
g1305
sI4
g1351
sI5
g1396
sI6
g1440
sI7
g1483
sI8
g1525
sI9
g1566
sI10
g1606
sI11
g1645
sI12
g1683
sI13
g1720
sI14
g1756
sI15
g1791
sI16
g1825
sI17
g1858
sI18
g1890
sI19
g1921
sI20
g1951
sI21
g1980
sI23
(dp2009
sI24
(dp2010
sI25
(dp2011
sI26
(dp2012
sI27
(dp2013
sI28
(dp2014
sI29
(dp2015
sI30
(dp2016
sI31
(dp2017
sI32
(dp2018
sI33
(dp2019
sI34
(dp2020
sI35
(dp2021
sI36
(dp2022
sI37
(dp2023
sI38
(dp2024
sI39
(dp2025
sI40
(dp2026
sI41
(dp2027
sI42
(dp2028
sI43
(dp2029
sI44
(dp2030
sI45
(dp2031
sI46
(dp2032
sI47
(dp2033
sI48
(dp2034
sI49
(dp2035
ssI23
(dp2036
I0
g1162
sI1
g1211
sI2
g1259
sI3
g1306
sI4
g1352
sI5
g1397
sI6
g1441
sI7
g1484
sI8
g1526
sI9
g1567
sI10
g1607
sI11
g1646
sI12
g1684
sI13
g1721
sI14
g1757
sI15
g1792
sI16
g1826
sI17
g1859
sI18
g1891
sI19
g1922
sI20
g1952
sI21
g1981
sI22
g2009
sI24
(dp2037
sI25
(dp2038
sI26
(dp2039
sI27
(dp2040
sI28
(dp2041
sI29
(dp2042
sI30
(dp2043
sI31
(dp2044
sI32
(dp2045
sI33
(dp2046
sI34
(dp2047
sI35
(dp2048
sI36
(dp2049
sI37
(dp2050
sI38
(dp2051
sI39
(dp2052
sI40
(dp2053
sI41
(dp2054
sI42
(dp2055
sI43
(dp2056
sI44
(dp2057
sI45
(dp2058
sI46
(dp2059
sI47
(dp2060
sI48
(dp2061
sI49
(dp2062
ssI24
(dp2063
I0
g1163
sI1
g1212
sI2
g1260
sI3
g1307
sI4
g1353
sI5
g1398
sI6
g1442
sI7
g1485
sI8
g1527
sI9
g1568
sI10
g1608
sI11
g1647
sI12
g1685
sI13
g1722
sI14
g1758
sI15
g1793
sI16
g1827
sI17
g1860
sI18
g1892
sI19
g1923
sI20
g1953
sI21
g1982
sI22
g2010
sI23
g2037
sI25
(dp2064
sI26
(dp2065
sI27
(dp2066
sI28
(dp2067
sI29
(dp2068
sI30
(dp2069
sI31
(dp2070
sI32
(dp2071
sI33
(dp2072
sI34
(dp2073
sI35
(dp2074
sI36
(dp2075
sI37
(dp2076
sI38
(dp2077
sI39
(dp2078
sI40
(dp2079
sI41
(dp2080
sI42
(dp2081
sI43
(dp2082
sI44
(dp2083
sI45
(dp2084
sI46
(dp2085
sI47
(dp2086
sI48
(dp2087
sI49
(dp2088
ssI25
(dp2089
I0
g1164
sI1
g1213
sI2
g1261
sI3
g1308
sI4
g1354
sI5
g1399
sI6
g1443
sI7
g1486
sI8
g1528
sI9
g1569
sI10
g1609
sI11
g1648
sI12
g1686
sI13
g1723
sI14
g1759
sI15
g1794
sI16
g1828
sI17
g1861
sI18
g1893
sI19
g1924
sI20
g1954
sI21
g1983
sI22
g2011
sI23
g2038
sI24
g2064
sI26
(dp2090
sI27
(dp2091
sI28
(dp2092
sI29
(dp2093
sI30
(dp2094
sI31
(dp2095
sI32
(dp2096
sI33
(dp2097
sI34
(dp2098
sI35
(dp2099
sI36
(dp2100
sI37
(dp2101
sI38
(dp2102
sI39
(dp2103
sI40
(dp2104
sI41
(dp2105
sI42
(dp2106
sI43
(dp2107
sI44
(dp2108
sI45
(dp2109
sI46
(dp2110
sI47
(dp2111
sI48
(dp2112
sI49
(dp2113
ssI26
(dp2114
I0
g1165
sI1
g1214
sI2
g1262
sI3
g1309
sI4
g1355
sI5
g1400
sI6
g1444
sI7
g1487
sI8
g1529
sI9
g1570
sI10
g1610
sI11
g1649
sI12
g1687
sI13
g1724
sI14
g1760
sI15
g1795
sI16
g1829
sI17
g1862
sI18
g1894
sI19
g1925
sI20
g1955
sI21
g1984
sI22
g2012
sI23
g2039
sI24
g2065
sI25
g2090
sI27
(dp2115
sI28
(dp2116
sI29
(dp2117
sI30
(dp2118
sI31
(dp2119
sI32
(dp2120
sI33
(dp2121
sI34
(dp2122
sI35
(dp2123
sI36
(dp2124
sI37
(dp2125
sI38
(dp2126
sI39
(dp2127
sI40
(dp2128
sI41
(dp2129
sI42
(dp2130
sI43
(dp2131
sI44
(dp2132
sI45
(dp2133
sI46
(dp2134
sI47
(dp2135
sI48
(dp2136
sI49
(dp2137
ssI27
(dp2138
I0
g1166
sI1
g1215
sI2
g1263
sI3
g1310
sI4
g1356
sI5
g1401
sI6
g1445
sI7
g1488
sI8
g1530
sI9
g1571
sI10
g1611
sI11
g1650
sI12
g1688
sI13
g1725
sI14
g1761
sI15
g1796
sI16
g1830
sI17
g1863
sI18
g1895
sI19
g1926
sI20
g1956
sI21
g1985
sI22
g2013
sI23
g2040
sI24
g2066
sI25
g2091
sI26
g2115
sI28
(dp2139
sI29
(dp2140
sI30
(dp2141
sI31
(dp2142
sI32
(dp2143
sI33
(dp2144
sI34
(dp2145
sI35
(dp2146
sI36
(dp2147
sI37
(dp2148
sI38
(dp2149
sI39
(dp2150
sI40
(dp2151
sI41
(dp2152
sI42
(dp2153
sI43
(dp2154
sI44
(dp2155
sI45
(dp2156
sI46
(dp2157
sI47
(dp2158
sI48
(dp2159
sI49
(dp2160
ssI28
(dp2161
I0
g1167
sI1
g1216
sI2
g1264
sI3
g1311
sI4
g1357
sI5
g1402
sI6
g1446
sI7
g1489
sI8
g1531
sI9
g1572
sI10
g1612
sI11
g1651
sI12
g1689
sI13
g1726
sI14
g1762
sI15
g1797
sI16
g1831
sI17
g1864
sI18
g1896
sI19
g1927
sI20
g1957
sI21
g1986
sI22
g2014
sI23
g2041
sI24
g2067
sI25
g2092
sI26
g2116
sI27
g2139
sI29
(dp2162
sI30
(dp2163
sI31
(dp2164
sI32
(dp2165
sI33
(dp2166
sI34
(dp2167
sI35
(dp2168
sI36
(dp2169
sI37
(dp2170
sI38
(dp2171
sI39
(dp2172
sI40
(dp2173
sI41
(dp2174
sI42
(dp2175
sI43
(dp2176
sI44
(dp2177
sI45
(dp2178
sI46
(dp2179
sI47
(dp2180
sI48
(dp2181
sI49
(dp2182
ssI29
(dp2183
I0
g1168
sI1
g1217
sI2
g1265
sI3
g1312
sI4
g1358
sI5
g1403
sI6
g1447
sI7
g1490
sI8
g1532
sI9
g1573
sI10
g1613
sI11
g1652
sI12
g1690
sI13
g1727
sI14
g1763
sI15
g1798
sI16
g1832
sI17
g1865
sI18
g1897
sI19
g1928
sI20
g1958
sI21
g1987
sI22
g2015
sI23
g2042
sI24
g2068
sI25
g2093
sI26
g2117
sI27
g2140
sI28
g2162
sI30
(dp2184
sI31
(dp2185
sI32
(dp2186
sI33
(dp2187
sI34
(dp2188
sI35
(dp2189
sI36
(dp2190
sI37
(dp2191
sI38
(dp2192
sI39
(dp2193
sI40
(dp2194
sI41
(dp2195
sI42
(dp2196
sI43
(dp2197
sI44
(dp2198
sI45
(dp2199
sI46
(dp2200
sI47
(dp2201
sI48
(dp2202
sI49
(dp2203
ssI30
(dp2204
I0
g1169
sI1
g1218
sI2
g1266
sI3
g1313
sI4
g1359
sI5
g1404
sI6
g1448
sI7
g1491
sI8
g1533
sI9
g1574
sI10
g1614
sI11
g1653
sI12
g1691
sI13
g1728
sI14
g1764
sI15
g1799
sI16
g1833
sI17
g1866
sI18
g1898
sI19
g1929
sI20
g1959
sI21
g1988
sI22
g2016
sI23
g2043
sI24
g2069
sI25
g2094
sI26
g2118
sI27
g2141
sI28
g2163
sI29
g2184
sI31
(dp2205
sI32
(dp2206
sI33
(dp2207
sI34
(dp2208
sI35
(dp2209
sI36
(dp2210
sI37
(dp2211
sI38
(dp2212
sI39
(dp2213
sI40
(dp2214
sI41
(dp2215
sI42
(dp2216
sI43
(dp2217
sI44
(dp2218
sI45
(dp2219
sI46
(dp2220
sI47
(dp2221
sI48
(dp2222
sI49
(dp2223
ssI31
(dp2224
I0
g1170
sI1
g1219
sI2
g1267
sI3
g1314
sI4
g1360
sI5
g1405
sI6
g1449
sI7
g1492
sI8
g1534
sI9
g1575
sI10
g1615
sI11
g1654
sI12
g1692
sI13
g1729
sI14
g1765
sI15
g1800
sI16
g1834
sI17
g1867
sI18
g1899
sI19
g1930
sI20
g1960
sI21
g1989
sI22
g2017
sI23
g2044
sI24
g2070
sI25
g2095
sI26
g2119
sI27
g2142
sI28
g2164
sI29
g2185
sI30
g2205
sI32
(dp2225
sI33
(dp2226
sI34
(dp2227
sI35
(dp2228
sI36
(dp2229
sI37
(dp2230
sI38
(dp2231
sI39
(dp2232
sI40
(dp2233
sI41
(dp2234
sI42
(dp2235
sI43
(dp2236
sI44
(dp2237
sI45
(dp2238
sI46
(dp2239
sI47
(dp2240
sI48
(dp2241
sI49
(dp2242
ssI32
(dp2243
I0
g1171
sI1
g1220
sI2
g1268
sI3
g1315
sI4
g1361
sI5
g1406
sI6
g1450
sI7
g1493
sI8
g1535
sI9
g1576
sI10
g1616
sI11
g1655
sI12
g1693
sI13
g1730
sI14
g1766
sI15
g1801
sI16
g1835
sI17
g1868
sI18
g1900
sI19
g1931
sI20
g1961
sI21
g1990
sI22
g2018
sI23
g2045
sI24
g2071
sI25
g2096
sI26
g2120
sI27
g2143
sI28
g2165
sI29
g2186
sI30
g2206
sI31
g2225
sI33
(dp2244
sI34
(dp2245
sI35
(dp2246
sI36
(dp2247
sI37
(dp2248
sI38
(dp2249
sI39
(dp2250
sI40
(dp2251
sI41
(dp2252
sI42
(dp2253
sI43
(dp2254
sI44
(dp2255
sI45
(dp2256
sI46
(dp2257
sI47
(dp2258
sI48
(dp2259
sI49
(dp2260
ssI33
(dp2261
I0
g1172
sI1
g1221
sI2
g1269
sI3
g1316
sI4
g1362
sI5
g1407
sI6
g1451
sI7
g1494
sI8
g1536
sI9
g1577
sI10
g1617
sI11
g1656
sI12
g1694
sI13
g1731
sI14
g1767
sI15
g1802
sI16
g1836
sI17
g1869
sI18
g1901
sI19
g1932
sI20
g1962
sI21
g1991
sI22
g2019
sI23
g2046
sI24
g2072
sI25
g2097
sI26
g2121
sI27
g2144
sI28
g2166
sI29
g2187
sI30
g2207
sI31
g2226
sI32
g2244
sI34
(dp2262
sI35
(dp2263
sI36
(dp2264
sI37
(dp2265
sI38
(dp2266
sI39
(dp2267
sI40
(dp2268
sI41
(dp2269
sI42
(dp2270
sI43
(dp2271
sI44
(dp2272
sI45
(dp2273
sI46
(dp2274
sI47
(dp2275
sI48
(dp2276
sI49
(dp2277
ssI34
(dp2278
I0
g1173
sI1
g1222
sI2
g1270
sI3
g1317
sI4
g1363
sI5
g1408
sI6
g1452
sI7
g1495
sI8
g1537
sI9
g1578
sI10
g1618
sI11
g1657
sI12
g1695
sI13
g1732
sI14
g1768
sI15
g1803
sI16
g1837
sI17
g1870
sI18
g1902
sI19
g1933
sI20
g1963
sI21
g1992
sI22
g2020
sI23
g2047
sI24
g2073
sI25
g2098
sI26
g2122
sI27
g2145
sI28
g2167
sI29
g2188
sI30
g2208
sI31
g2227
sI32
g2245
sI33
g2262
sI35
(dp2279
sI36
(dp2280
sI37
(dp2281
sI38
(dp2282
sI39
(dp2283
sI40
(dp2284
sI41
(dp2285
sI42
(dp2286
sI43
(dp2287
sI44
(dp2288
sI45
(dp2289
sI46
(dp2290
sI47
(dp2291
sI48
(dp2292
sI49
(dp2293
ssI35
(dp2294
I0
g1174
sI1
g1223
sI2
g1271
sI3
g1318
sI4
g1364
sI5
g1409
sI6
g1453
sI7
g1496
sI8
g1538
sI9
g1579
sI10
g1619
sI11
g1658
sI12
g1696
sI13
g1733
sI14
g1769
sI15
g1804
sI16
g1838
sI17
g1871
sI18
g1903
sI19
g1934
sI20
g1964
sI21
g1993
sI22
g2021
sI23
g2048
sI24
g2074
sI25
g2099
sI26
g2123
sI27
g2146
sI28
g2168
sI29
g2189
sI30
g2209
sI31
g2228
sI32
g2246
sI33
g2263
sI34
g2279
sI36
(dp2295
sI37
(dp2296
sI38
(dp2297
sI39
(dp2298
sI40
(dp2299
sI41
(dp2300
sI42
(dp2301
sI43
(dp2302
sI44
(dp2303
sI45
(dp2304
sI46
(dp2305
sI47
(dp2306
sI48
(dp2307
sI49
(dp2308
ssI36
(dp2309
I0
g1175
sI1
g1224
sI2
g1272
sI3
g1319
sI4
g1365
sI5
g1410
sI6
g1454
sI7
g1497
sI8
g1539
sI9
g1580
sI10
g1620
sI11
g1659
sI12
g1697
sI13
g1734
sI14
g1770
sI15
g1805
sI16
g1839
sI17
g1872
sI18
g1904
sI19
g1935
sI20
g1965
sI21
g1994
sI22
g2022
sI23
g2049
sI24
g2075
sI25
g2100
sI26
g2124
sI27
g2147
sI28
g2169
sI29
g2190
sI30
g2210
sI31
g2229
sI32
g2247
sI33
g2264
sI34
g2280
sI35
g2295
sI37
(dp2310
sI38
(dp2311
sI39
(dp2312
sI40
(dp2313
sI41
(dp2314
sI42
(dp2315
sI43
(dp2316
sI44
(dp2317
sI45
(dp2318
sI46
(dp2319
sI47
(dp2320
sI48
(dp2321
sI49
(dp2322
ssI37
(dp2323
I0
g1176
sI1
g1225
sI2
g1273
sI3
g1320
sI4
g1366
sI5
g1411
sI6
g1455
sI7
g1498
sI8
g1540
sI9
g1581
sI10
g1621
sI11
g1660
sI12
g1698
sI13
g1735
sI14
g1771
sI15
g1806
sI16
g1840
sI17
g1873
sI18
g1905
sI19
g1936
sI20
g1966
sI21
g1995
sI22
g2023
sI23
g2050
sI24
g2076
sI25
g2101
sI26
g2125
sI27
g2148
sI28
g2170
sI29
g2191
sI30
g2211
sI31
g2230
sI32
g2248
sI33
g2265
sI34
g2281
sI35
g2296
sI36
g2310
sI38
(dp2324
sI39
(dp2325
sI40
(dp2326
sI41
(dp2327
sI42
(dp2328
sI43
(dp2329
sI44
(dp2330
sI45
(dp2331
sI46
(dp2332
sI47
(dp2333
sI48
(dp2334
sI49
(dp2335
ssI38
(dp2336
I0
g1177
sI1
g1226
sI2
g1274
sI3
g1321
sI4
g1367
sI5
g1412
sI6
g1456
sI7
g1499
sI8
g1541
sI9
g1582
sI10
g1622
sI11
g1661
sI12
g1699
sI13
g1736
sI14
g1772
sI15
g1807
sI16
g1841
sI17
g1874
sI18
g1906
sI19
g1937
sI20
g1967
sI21
g1996
sI22
g2024
sI23
g2051
sI24
g2077
sI25
g2102
sI26
g2126
sI27
g2149
sI28
g2171
sI29
g2192
sI30
g2212
sI31
g2231
sI32
g2249
sI33
g2266
sI34
g2282
sI35
g2297
sI36
g2311
sI37
g2324
sI39
(dp2337
sI40
(dp2338
sI41
(dp2339
sI42
(dp2340
sI43
(dp2341
sI44
(dp2342
sI45
(dp2343
sI46
(dp2344
sI47
(dp2345
sI48
(dp2346
sI49
(dp2347
ssI39
(dp2348
I0
g1178
sI1
g1227
sI2
g1275
sI3
g1322
sI4
g1368
sI5
g1413
sI6
g1457
sI7
g1500
sI8
g1542
sI9
g1583
sI10
g1623
sI11
g1662
sI12
g1700
sI13
g1737
sI14
g1773
sI15
g1808
sI16
g1842
sI17
g1875
sI18
g1907
sI19
g1938
sI20
g1968
sI21
g1997
sI22
g2025
sI23
g2052
sI24
g2078
sI25
g2103
sI26
g2127
sI27
g2150
sI28
g2172
sI29
g2193
sI30
g2213
sI31
g2232
sI32
g2250
sI33
g2267
sI34
g2283
sI35
g2298
sI36
g2312
sI37
g2325
sI38
g2337
sI40
(dp2349
sI41
(dp2350
sI42
(dp2351
sI43
(dp2352
sI44
(dp2353
sI45
(dp2354
sI46
(dp2355
sI47
(dp2356
sI48
(dp2357
sI49
(dp2358
ssI40
(dp2359
I0
g1179
sI1
g1228
sI2
g1276
sI3
g1323
sI4
g1369
sI5
g1414
sI6
g1458
sI7
g1501
sI8
g1543
sI9
g1584
sI10
g1624
sI11
g1663
sI12
g1701
sI13
g1738
sI14
g1774
sI15
g1809
sI16
g1843
sI17
g1876
sI18
g1908
sI19
g1939
sI20
g1969
sI21
g1998
sI22
g2026
sI23
g2053
sI24
g2079
sI25
g2104
sI26
g2128
sI27
g2151
sI28
g2173
sI29
g2194
sI30
g2214
sI31
g2233
sI32
g2251
sI33
g2268
sI34
g2284
sI35
g2299
sI36
g2313
sI37
g2326
sI38
g2338
sI39
g2349
sI41
(dp2360
sI42
(dp2361
sI43
(dp2362
sI44
(dp2363
sI45
(dp2364
sI46
(dp2365
sI47
(dp2366
sI48
(dp2367
sI49
(dp2368
ssI41
(dp2369
I0
g1180
sI1
g1229
sI2
g1277
sI3
g1324
sI4
g1370
sI5
g1415
sI6
g1459
sI7
g1502
sI8
g1544
sI9
g1585
sI10
g1625
sI11
g1664
sI12
g1702
sI13
g1739
sI14
g1775
sI15
g1810
sI16
g1844
sI17
g1877
sI18
g1909
sI19
g1940
sI20
g1970
sI21
g1999
sI22
g2027
sI23
g2054
sI24
g2080
sI25
g2105
sI26
g2129
sI27
g2152
sI28
g2174
sI29
g2195
sI30
g2215
sI31
g2234
sI32
g2252
sI33
g2269
sI34
g2285
sI35
g2300
sI36
g2314
sI37
g2327
sI38
g2339
sI39
g2350
sI40
g2360
sI42
(dp2370
sI43
(dp2371
sI44
(dp2372
sI45
(dp2373
sI46
(dp2374
sI47
(dp2375
sI48
(dp2376
sI49
(dp2377
ssI42
(dp2378
I0
g1181
sI1
g1230
sI2
g1278
sI3
g1325
sI4
g1371
sI5
g1416
sI6
g1460
sI7
g1503
sI8
g1545
sI9
g1586
sI10
g1626
sI11
g1665
sI12
g1703
sI13
g1740
sI14
g1776
sI15
g1811
sI16
g1845
sI17
g1878
sI18
g1910
sI19
g1941
sI20
g1971
sI21
g2000
sI22
g2028
sI23
g2055
sI24
g2081
sI25
g2106
sI26
g2130
sI27
g2153
sI28
g2175
sI29
g2196
sI30
g2216
sI31
g2235
sI32
g2253
sI33
g2270
sI34
g2286
sI35
g2301
sI36
g2315
sI37
g2328
sI38
g2340
sI39
g2351
sI40
g2361
sI41
g2370
sI43
(dp2379
sI44
(dp2380
sI45
(dp2381
sI46
(dp2382
sI47
(dp2383
sI48
(dp2384
sI49
(dp2385
ssI43
(dp2386
I0
g1182
sI1
g1231
sI2
g1279
sI3
g1326
sI4
g1372
sI5
g1417
sI6
g1461
sI7
g1504
sI8
g1546
sI9
g1587
sI10
g1627
sI11
g1666
sI12
g1704
sI13
g1741
sI14
g1777
sI15
g1812
sI16
g1846
sI17
g1879
sI18
g1911
sI19
g1942
sI20
g1972
sI21
g2001
sI22
g2029
sI23
g2056
sI24
g2082
sI25
g2107
sI26
g2131
sI27
g2154
sI28
g2176
sI29
g2197
sI30
g2217
sI31
g2236
sI32
g2254
sI33
g2271
sI34
g2287
sI35
g2302
sI36
g2316
sI37
g2329
sI38
g2341
sI39
g2352
sI40
g2362
sI41
g2371
sI42
g2379
sI44
(dp2387
sI45
(dp2388
sI46
(dp2389
sI47
(dp2390
sI48
(dp2391
sI49
(dp2392
ssI44
(dp2393
I0
g1183
sI1
g1232
sI2
g1280
sI3
g1327
sI4
g1373
sI5
g1418
sI6
g1462
sI7
g1505
sI8
g1547
sI9
g1588
sI10
g1628
sI11
g1667
sI12
g1705
sI13
g1742
sI14
g1778
sI15
g1813
sI16
g1847
sI17
g1880
sI18
g1912
sI19
g1943
sI20
g1973
sI21
g2002
sI22
g2030
sI23
g2057
sI24
g2083
sI25
g2108
sI26
g2132
sI27
g2155
sI28
g2177
sI29
g2198
sI30
g2218
sI31
g2237
sI32
g2255
sI33
g2272
sI34
g2288
sI35
g2303
sI36
g2317
sI37
g2330
sI38
g2342
sI39
g2353
sI40
g2363
sI41
g2372
sI42
g2380
sI43
g2387
sI45
(dp2394
sI46
(dp2395
sI47
(dp2396
sI48
(dp2397
sI49
(dp2398
ssI45
(dp2399
I0
g1184
sI1
g1233
sI2
g1281
sI3
g1328
sI4
g1374
sI5
g1419
sI6
g1463
sI7
g1506
sI8
g1548
sI9
g1589
sI10
g1629
sI11
g1668
sI12
g1706
sI13
g1743
sI14
g1779
sI15
g1814
sI16
g1848
sI17
g1881
sI18
g1913
sI19
g1944
sI20
g1974
sI21
g2003
sI22
g2031
sI23
g2058
sI24
g2084
sI25
g2109
sI26
g2133
sI27
g2156
sI28
g2178
sI29
g2199
sI30
g2219
sI31
g2238
sI32
g2256
sI33
g2273
sI34
g2289
sI35
g2304
sI36
g2318
sI37
g2331
sI38
g2343
sI39
g2354
sI40
g2364
sI41
g2373
sI42
g2381
sI43
g2388
sI44
g2394
sI46
(dp2400
sI47
(dp2401
sI48
(dp2402
sI49
(dp2403
ssI46
(dp2404
I0
g1185
sI1
g1234
sI2
g1282
sI3
g1329
sI4
g1375
sI5
g1420
sI6
g1464
sI7
g1507
sI8
g1549
sI9
g1590
sI10
g1630
sI11
g1669
sI12
g1707
sI13
g1744
sI14
g1780
sI15
g1815
sI16
g1849
sI17
g1882
sI18
g1914
sI19
g1945
sI20
g1975
sI21
g2004
sI22
g2032
sI23
g2059
sI24
g2085
sI25
g2110
sI26
g2134
sI27
g2157
sI28
g2179
sI29
g2200
sI30
g2220
sI31
g2239
sI32
g2257
sI33
g2274
sI34
g2290
sI35
g2305
sI36
g2319
sI37
g2332
sI38
g2344
sI39
g2355
sI40
g2365
sI41
g2374
sI42
g2382
sI43
g2389
sI44
g2395
sI45
g2400
sI47
(dp2405
sI48
(dp2406
sI49
(dp2407
ssI47
(dp2408
I0
g1186
sI1
g1235
sI2
g1283
sI3
g1330
sI4
g1376
sI5
g1421
sI6
g1465
sI7
g1508
sI8
g1550
sI9
g1591
sI10
g1631
sI11
g1670
sI12
g1708
sI13
g1745
sI14
g1781
sI15
g1816
sI16
g1850
sI17
g1883
sI18
g1915
sI19
g1946
sI20
g1976
sI21
g2005
sI22
g2033
sI23
g2060
sI24
g2086
sI25
g2111
sI26
g2135
sI27
g2158
sI28
g2180
sI29
g2201
sI30
g2221
sI31
g2240
sI32
g2258
sI33
g2275
sI34
g2291
sI35
g2306
sI36
g2320
sI37
g2333
sI38
g2345
sI39
g2356
sI40
g2366
sI41
g2375
sI42
g2383
sI43
g2390
sI44
g2396
sI45
g2401
sI46
g2405
sI48
(dp2409
sI49
(dp2410
ssI48
(dp2411
I0
g1187
sI1
g1236
sI2
g1284
sI3
g1331
sI4
g1377
sI5
g1422
sI6
g1466
sI7
g1509
sI8
g1551
sI9
g1592
sI10
g1632
sI11
g1671
sI12
g1709
sI13
g1746
sI14
g1782
sI15
g1817
sI16
g1851
sI17
g1884
sI18
g1916
sI19
g1947
sI20
g1977
sI21
g2006
sI22
g2034
sI23
g2061
sI24
g2087
sI25
g2112
sI26
g2136
sI27
g2159
sI28
g2181
sI29
g2202
sI30
g2222
sI31
g2241
sI32
g2259
sI33
g2276
sI34
g2292
sI35
g2307
sI36
g2321
sI37
g2334
sI38
g2346
sI39
g2357
sI40
g2367
sI41
g2376
sI42
g2384
sI43
g2391
sI44
g2397
sI45
g2402
sI46
g2406
sI47
g2409
sI49
(dp2412
ssI49
(dp2413
I0
g1188
sI1
g1237
sI2
g1285
sI3
g1332
sI4
g1378
sI5
g1423
sI6
g1467
sI7
g1510
sI8
g1552
sI9
g1593
sI10
g1633
sI11
g1672
sI12
g1710
sI13
g1747
sI14
g1783
sI15
g1818
sI16
g1852
sI17
g1885
sI18
g1917
sI19
g1948
sI20
g1978
sI21
g2007
sI22
g2035
sI23
g2062
sI24
g2088
sI25
g2113
sI26
g2137
sI27
g2160
sI28
g2182
sI29
g2203
sI30
g2223
sI31
g2242
sI32
g2260
sI33
g2277
sI34
g2293
sI35
g2308
sI36
g2322
sI37
g2335
sI38
g2347
sI39
g2358
sI40
g2368
sI41
g2377
sI42
g2385
sI43
g2392
sI44
g2398
sI45
g2403
sI46
g2407
sI47
g2410
sI48
g2412
sI50
(dp2414
ssI50
(dp2415
I49
g2414
sI51
(dp2416
sI52
(dp2417
sI53
(dp2418
sI54
(dp2419
sI55
(dp2420
sI56
(dp2421
sI57
(dp2422
sI58
(dp2423
sI59
(dp2424
sI60
(dp2425
sI61
(dp2426
sI62
(dp2427
sI63
(dp2428
sI64
(dp2429
sI65
(dp2430
sI66
(dp2431
sI67
(dp2432
sI68
(dp2433
sI69
(dp2434
sI70
(dp2435
sI71
(dp2436
sI72
(dp2437
sI73
(dp2438
sI74
(dp2439
sI75
(dp2440
sI76
(dp2441
sI77
(dp2442
sI78
(dp2443
sI79
(dp2444
sI80
(dp2445
sI81
(dp2446
sI82
(dp2447
sI83
(dp2448
sI84
(dp2449
sI85
(dp2450
sI86
(dp2451
sI87
(dp2452
sI88
(dp2453
sI89
(dp2454
sI90
(dp2455
sI91
(dp2456
sI92
(dp2457
sI93
(dp2458
sI94
(dp2459
sI95
(dp2460
sI96
(dp2461
sI97
(dp2462
sI98
(dp2463
sI99
(dp2464
ssI51
(dp2465
I50
g2416
sI52
(dp2466
sI53
(dp2467
sI54
(dp2468
sI55
(dp2469
sI56
(dp2470
sI57
(dp2471
sI58
(dp2472
sI59
(dp2473
sI60
(dp2474
sI61
(dp2475
sI62
(dp2476
sI63
(dp2477
sI64
(dp2478
sI65
(dp2479
sI66
(dp2480
sI67
(dp2481
sI68
(dp2482
sI69
(dp2483
sI70
(dp2484
sI71
(dp2485
sI72
(dp2486
sI73
(dp2487
sI74
(dp2488
sI75
(dp2489
sI76
(dp2490
sI77
(dp2491
sI78
(dp2492
sI79
(dp2493
sI80
(dp2494
sI81
(dp2495
sI82
(dp2496
sI83
(dp2497
sI84
(dp2498
sI85
(dp2499
sI86
(dp2500
sI87
(dp2501
sI88
(dp2502
sI89
(dp2503
sI90
(dp2504
sI91
(dp2505
sI92
(dp2506
sI93
(dp2507
sI94
(dp2508
sI95
(dp2509
sI96
(dp2510
sI97
(dp2511
sI98
(dp2512
sI99
(dp2513
ssI52
(dp2514
I50
g2417
sI51
g2466
sI53
(dp2515
sI54
(dp2516
sI55
(dp2517
sI56
(dp2518
sI57
(dp2519
sI58
(dp2520
sI59
(dp2521
sI60
(dp2522
sI61
(dp2523
sI62
(dp2524
sI63
(dp2525
sI64
(dp2526
sI65
(dp2527
sI66
(dp2528
sI67
(dp2529
sI68
(dp2530
sI69
(dp2531
sI70
(dp2532
sI71
(dp2533
sI72
(dp2534
sI73
(dp2535
sI74
(dp2536
sI75
(dp2537
sI76
(dp2538
sI77
(dp2539
sI78
(dp2540
sI79
(dp2541
sI80
(dp2542
sI81
(dp2543
sI82
(dp2544
sI83
(dp2545
sI84
(dp2546
sI85
(dp2547
sI86
(dp2548
sI87
(dp2549
sI88
(dp2550
sI89
(dp2551
sI90
(dp2552
sI91
(dp2553
sI92
(dp2554
sI93
(dp2555
sI94
(dp2556
sI95
(dp2557
sI96
(dp2558
sI97
(dp2559
sI98
(dp2560
sI99
(dp2561
ssI53
(dp2562
I50
g2418
sI51
g2467
sI52
g2515
sI54
(dp2563
sI55
(dp2564
sI56
(dp2565
sI57
(dp2566
sI58
(dp2567
sI59
(dp2568
sI60
(dp2569
sI61
(dp2570
sI62
(dp2571
sI63
(dp2572
sI64
(dp2573
sI65
(dp2574
sI66
(dp2575
sI67
(dp2576
sI68
(dp2577
sI69
(dp2578
sI70
(dp2579
sI71
(dp2580
sI72
(dp2581
sI73
(dp2582
sI74
(dp2583
sI75
(dp2584
sI76
(dp2585
sI77
(dp2586
sI78
(dp2587
sI79
(dp2588
sI80
(dp2589
sI81
(dp2590
sI82
(dp2591
sI83
(dp2592
sI84
(dp2593
sI85
(dp2594
sI86
(dp2595
sI87
(dp2596
sI88
(dp2597
sI89
(dp2598
sI90
(dp2599
sI91
(dp2600
sI92
(dp2601
sI93
(dp2602
sI94
(dp2603
sI95
(dp2604
sI96
(dp2605
sI97
(dp2606
sI98
(dp2607
sI99
(dp2608
ssI54
(dp2609
I50
g2419
sI51
g2468
sI52
g2516
sI53
g2563
sI55
(dp2610
sI56
(dp2611
sI57
(dp2612
sI58
(dp2613
sI59
(dp2614
sI60
(dp2615
sI61
(dp2616
sI62
(dp2617
sI63
(dp2618
sI64
(dp2619
sI65
(dp2620
sI66
(dp2621
sI67
(dp2622
sI68
(dp2623
sI69
(dp2624
sI70
(dp2625
sI71
(dp2626
sI72
(dp2627
sI73
(dp2628
sI74
(dp2629
sI75
(dp2630
sI76
(dp2631
sI77
(dp2632
sI78
(dp2633
sI79
(dp2634
sI80
(dp2635
sI81
(dp2636
sI82
(dp2637
sI83
(dp2638
sI84
(dp2639
sI85
(dp2640
sI86
(dp2641
sI87
(dp2642
sI88
(dp2643
sI89
(dp2644
sI90
(dp2645
sI91
(dp2646
sI92
(dp2647
sI93
(dp2648
sI94
(dp2649
sI95
(dp2650
sI96
(dp2651
sI97
(dp2652
sI98
(dp2653
sI99
(dp2654
ssI55
(dp2655
I50
g2420
sI51
g2469
sI52
g2517
sI53
g2564
sI54
g2610
sI56
(dp2656
sI57
(dp2657
sI58
(dp2658
sI59
(dp2659
sI60
(dp2660
sI61
(dp2661
sI62
(dp2662
sI63
(dp2663
sI64
(dp2664
sI65
(dp2665
sI66
(dp2666
sI67
(dp2667
sI68
(dp2668
sI69
(dp2669
sI70
(dp2670
sI71
(dp2671
sI72
(dp2672
sI73
(dp2673
sI74
(dp2674
sI75
(dp2675
sI76
(dp2676
sI77
(dp2677
sI78
(dp2678
sI79
(dp2679
sI80
(dp2680
sI81
(dp2681
sI82
(dp2682
sI83
(dp2683
sI84
(dp2684
sI85
(dp2685
sI86
(dp2686
sI87
(dp2687
sI88
(dp2688
sI89
(dp2689
sI90
(dp2690
sI91
(dp2691
sI92
(dp2692
sI93
(dp2693
sI94
(dp2694
sI95
(dp2695
sI96
(dp2696
sI97
(dp2697
sI98
(dp2698
sI99
(dp2699
ssI56
(dp2700
I50
g2421
sI51
g2470
sI52
g2518
sI53
g2565
sI54
g2611
sI55
g2656
sI57
(dp2701
sI58
(dp2702
sI59
(dp2703
sI60
(dp2704
sI61
(dp2705
sI62
(dp2706
sI63
(dp2707
sI64
(dp2708
sI65
(dp2709
sI66
(dp2710
sI67
(dp2711
sI68
(dp2712
sI69
(dp2713
sI70
(dp2714
sI71
(dp2715
sI72
(dp2716
sI73
(dp2717
sI74
(dp2718
sI75
(dp2719
sI76
(dp2720
sI77
(dp2721
sI78
(dp2722
sI79
(dp2723
sI80
(dp2724
sI81
(dp2725
sI82
(dp2726
sI83
(dp2727
sI84
(dp2728
sI85
(dp2729
sI86
(dp2730
sI87
(dp2731
sI88
(dp2732
sI89
(dp2733
sI90
(dp2734
sI91
(dp2735
sI92
(dp2736
sI93
(dp2737
sI94
(dp2738
sI95
(dp2739
sI96
(dp2740
sI97
(dp2741
sI98
(dp2742
sI99
(dp2743
ssI57
(dp2744
I50
g2422
sI51
g2471
sI52
g2519
sI53
g2566
sI54
g2612
sI55
g2657
sI56
g2701
sI58
(dp2745
sI59
(dp2746
sI60
(dp2747
sI61
(dp2748
sI62
(dp2749
sI63
(dp2750
sI64
(dp2751
sI65
(dp2752
sI66
(dp2753
sI67
(dp2754
sI68
(dp2755
sI69
(dp2756
sI70
(dp2757
sI71
(dp2758
sI72
(dp2759
sI73
(dp2760
sI74
(dp2761
sI75
(dp2762
sI76
(dp2763
sI77
(dp2764
sI78
(dp2765
sI79
(dp2766
sI80
(dp2767
sI81
(dp2768
sI82
(dp2769
sI83
(dp2770
sI84
(dp2771
sI85
(dp2772
sI86
(dp2773
sI87
(dp2774
sI88
(dp2775
sI89
(dp2776
sI90
(dp2777
sI91
(dp2778
sI92
(dp2779
sI93
(dp2780
sI94
(dp2781
sI95
(dp2782
sI96
(dp2783
sI97
(dp2784
sI98
(dp2785
sI99
(dp2786
ssI58
(dp2787
I50
g2423
sI51
g2472
sI52
g2520
sI53
g2567
sI54
g2613
sI55
g2658
sI56
g2702
sI57
g2745
sI59
(dp2788
sI60
(dp2789
sI61
(dp2790
sI62
(dp2791
sI63
(dp2792
sI64
(dp2793
sI65
(dp2794
sI66
(dp2795
sI67
(dp2796
sI68
(dp2797
sI69
(dp2798
sI70
(dp2799
sI71
(dp2800
sI72
(dp2801
sI73
(dp2802
sI74
(dp2803
sI75
(dp2804
sI76
(dp2805
sI77
(dp2806
sI78
(dp2807
sI79
(dp2808
sI80
(dp2809
sI81
(dp2810
sI82
(dp2811
sI83
(dp2812
sI84
(dp2813
sI85
(dp2814
sI86
(dp2815
sI87
(dp2816
sI88
(dp2817
sI89
(dp2818
sI90
(dp2819
sI91
(dp2820
sI92
(dp2821
sI93
(dp2822
sI94
(dp2823
sI95
(dp2824
sI96
(dp2825
sI97
(dp2826
sI98
(dp2827
sI99
(dp2828
ssI59
(dp2829
I50
g2424
sI51
g2473
sI52
g2521
sI53
g2568
sI54
g2614
sI55
g2659
sI56
g2703
sI57
g2746
sI58
g2788
sI60
(dp2830
sI61
(dp2831
sI62
(dp2832
sI63
(dp2833
sI64
(dp2834
sI65
(dp2835
sI66
(dp2836
sI67
(dp2837
sI68
(dp2838
sI69
(dp2839
sI70
(dp2840
sI71
(dp2841
sI72
(dp2842
sI73
(dp2843
sI74
(dp2844
sI75
(dp2845
sI76
(dp2846
sI77
(dp2847
sI78
(dp2848
sI79
(dp2849
sI80
(dp2850
sI81
(dp2851
sI82
(dp2852
sI83
(dp2853
sI84
(dp2854
sI85
(dp2855
sI86
(dp2856
sI87
(dp2857
sI88
(dp2858
sI89
(dp2859
sI90
(dp2860
sI91
(dp2861
sI92
(dp2862
sI93
(dp2863
sI94
(dp2864
sI95
(dp2865
sI96
(dp2866
sI97
(dp2867
sI98
(dp2868
sI99
(dp2869
ssI60
(dp2870
I50
g2425
sI51
g2474
sI52
g2522
sI53
g2569
sI54
g2615
sI55
g2660
sI56
g2704
sI57
g2747
sI58
g2789
sI59
g2830
sI61
(dp2871
sI62
(dp2872
sI63
(dp2873
sI64
(dp2874
sI65
(dp2875
sI66
(dp2876
sI67
(dp2877
sI68
(dp2878
sI69
(dp2879
sI70
(dp2880
sI71
(dp2881
sI72
(dp2882
sI73
(dp2883
sI74
(dp2884
sI75
(dp2885
sI76
(dp2886
sI77
(dp2887
sI78
(dp2888
sI79
(dp2889
sI80
(dp2890
sI81
(dp2891
sI82
(dp2892
sI83
(dp2893
sI84
(dp2894
sI85
(dp2895
sI86
(dp2896
sI87
(dp2897
sI88
(dp2898
sI89
(dp2899
sI90
(dp2900
sI91
(dp2901
sI92
(dp2902
sI93
(dp2903
sI94
(dp2904
sI95
(dp2905
sI96
(dp2906
sI97
(dp2907
sI98
(dp2908
sI99
(dp2909
ssI61
(dp2910
I50
g2426
sI51
g2475
sI52
g2523
sI53
g2570
sI54
g2616
sI55
g2661
sI56
g2705
sI57
g2748
sI58
g2790
sI59
g2831
sI60
g2871
sI62
(dp2911
sI63
(dp2912
sI64
(dp2913
sI65
(dp2914
sI66
(dp2915
sI67
(dp2916
sI68
(dp2917
sI69
(dp2918
sI70
(dp2919
sI71
(dp2920
sI72
(dp2921
sI73
(dp2922
sI74
(dp2923
sI75
(dp2924
sI76
(dp2925
sI77
(dp2926
sI78
(dp2927
sI79
(dp2928
sI80
(dp2929
sI81
(dp2930
sI82
(dp2931
sI83
(dp2932
sI84
(dp2933
sI85
(dp2934
sI86
(dp2935
sI87
(dp2936
sI88
(dp2937
sI89
(dp2938
sI90
(dp2939
sI91
(dp2940
sI92
(dp2941
sI93
(dp2942
sI94
(dp2943
sI95
(dp2944
sI96
(dp2945
sI97
(dp2946
sI98
(dp2947
sI99
(dp2948
ssI62
(dp2949
I50
g2427
sI51
g2476
sI52
g2524
sI53
g2571
sI54
g2617
sI55
g2662
sI56
g2706
sI57
g2749
sI58
g2791
sI59
g2832
sI60
g2872
sI61
g2911
sI63
(dp2950
sI64
(dp2951
sI65
(dp2952
sI66
(dp2953
sI67
(dp2954
sI68
(dp2955
sI69
(dp2956
sI70
(dp2957
sI71
(dp2958
sI72
(dp2959
sI73
(dp2960
sI74
(dp2961
sI75
(dp2962
sI76
(dp2963
sI77
(dp2964
sI78
(dp2965
sI79
(dp2966
sI80
(dp2967
sI81
(dp2968
sI82
(dp2969
sI83
(dp2970
sI84
(dp2971
sI85
(dp2972
sI86
(dp2973
sI87
(dp2974
sI88
(dp2975
sI89
(dp2976
sI90
(dp2977
sI91
(dp2978
sI92
(dp2979
sI93
(dp2980
sI94
(dp2981
sI95
(dp2982
sI96
(dp2983
sI97
(dp2984
sI98
(dp2985
sI99
(dp2986
ssI63
(dp2987
I50
g2428
sI51
g2477
sI52
g2525
sI53
g2572
sI54
g2618
sI55
g2663
sI56
g2707
sI57
g2750
sI58
g2792
sI59
g2833
sI60
g2873
sI61
g2912
sI62
g2950
sI64
(dp2988
sI65
(dp2989
sI66
(dp2990
sI67
(dp2991
sI68
(dp2992
sI69
(dp2993
sI70
(dp2994
sI71
(dp2995
sI72
(dp2996
sI73
(dp2997
sI74
(dp2998
sI75
(dp2999
sI76
(dp3000
sI77
(dp3001
sI78
(dp3002
sI79
(dp3003
sI80
(dp3004
sI81
(dp3005
sI82
(dp3006
sI83
(dp3007
sI84
(dp3008
sI85
(dp3009
sI86
(dp3010
sI87
(dp3011
sI88
(dp3012
sI89
(dp3013
sI90
(dp3014
sI91
(dp3015
sI92
(dp3016
sI93
(dp3017
sI94
(dp3018
sI95
(dp3019
sI96
(dp3020
sI97
(dp3021
sI98
(dp3022
sI99
(dp3023
ssI64
(dp3024
I50
g2429
sI51
g2478
sI52
g2526
sI53
g2573
sI54
g2619
sI55
g2664
sI56
g2708
sI57
g2751
sI58
g2793
sI59
g2834
sI60
g2874
sI61
g2913
sI62
g2951
sI63
g2988
sI65
(dp3025
sI66
(dp3026
sI67
(dp3027
sI68
(dp3028
sI69
(dp3029
sI70
(dp3030
sI71
(dp3031
sI72
(dp3032
sI73
(dp3033
sI74
(dp3034
sI75
(dp3035
sI76
(dp3036
sI77
(dp3037
sI78
(dp3038
sI79
(dp3039
sI80
(dp3040
sI81
(dp3041
sI82
(dp3042
sI83
(dp3043
sI84
(dp3044
sI85
(dp3045
sI86
(dp3046
sI87
(dp3047
sI88
(dp3048
sI89
(dp3049
sI90
(dp3050
sI91
(dp3051
sI92
(dp3052
sI93
(dp3053
sI94
(dp3054
sI95
(dp3055
sI96
(dp3056
sI97
(dp3057
sI98
(dp3058
sI99
(dp3059
ssI65
(dp3060
I50
g2430
sI51
g2479
sI52
g2527
sI53
g2574
sI54
g2620
sI55
g2665
sI56
g2709
sI57
g2752
sI58
g2794
sI59
g2835
sI60
g2875
sI61
g2914
sI62
g2952
sI63
g2989
sI64
g3025
sI66
(dp3061
sI67
(dp3062
sI68
(dp3063
sI69
(dp3064
sI70
(dp3065
sI71
(dp3066
sI72
(dp3067
sI73
(dp3068
sI74
(dp3069
sI75
(dp3070
sI76
(dp3071
sI77
(dp3072
sI78
(dp3073
sI79
(dp3074
sI80
(dp3075
sI81
(dp3076
sI82
(dp3077
sI83
(dp3078
sI84
(dp3079
sI85
(dp3080
sI86
(dp3081
sI87
(dp3082
sI88
(dp3083
sI89
(dp3084
sI90
(dp3085
sI91
(dp3086
sI92
(dp3087
sI93
(dp3088
sI94
(dp3089
sI95
(dp3090
sI96
(dp3091
sI97
(dp3092
sI98
(dp3093
sI99
(dp3094
ssI66
(dp3095
I50
g2431
sI51
g2480
sI52
g2528
sI53
g2575
sI54
g2621
sI55
g2666
sI56
g2710
sI57
g2753
sI58
g2795
sI59
g2836
sI60
g2876
sI61
g2915
sI62
g2953
sI63
g2990
sI64
g3026
sI65
g3061
sI67
(dp3096
sI68
(dp3097
sI69
(dp3098
sI70
(dp3099
sI71
(dp3100
sI72
(dp3101
sI73
(dp3102
sI74
(dp3103
sI75
(dp3104
sI76
(dp3105
sI77
(dp3106
sI78
(dp3107
sI79
(dp3108
sI80
(dp3109
sI81
(dp3110
sI82
(dp3111
sI83
(dp3112
sI84
(dp3113
sI85
(dp3114
sI86
(dp3115
sI87
(dp3116
sI88
(dp3117
sI89
(dp3118
sI90
(dp3119
sI91
(dp3120
sI92
(dp3121
sI93
(dp3122
sI94
(dp3123
sI95
(dp3124
sI96
(dp3125
sI97
(dp3126
sI98
(dp3127
sI99
(dp3128
ssI67
(dp3129
I50
g2432
sI51
g2481
sI52
g2529
sI53
g2576
sI54
g2622
sI55
g2667
sI56
g2711
sI57
g2754
sI58
g2796
sI59
g2837
sI60
g2877
sI61
g2916
sI62
g2954
sI63
g2991
sI64
g3027
sI65
g3062
sI66
g3096
sI68
(dp3130
sI69
(dp3131
sI70
(dp3132
sI71
(dp3133
sI72
(dp3134
sI73
(dp3135
sI74
(dp3136
sI75
(dp3137
sI76
(dp3138
sI77
(dp3139
sI78
(dp3140
sI79
(dp3141
sI80
(dp3142
sI81
(dp3143
sI82
(dp3144
sI83
(dp3145
sI84
(dp3146
sI85
(dp3147
sI86
(dp3148
sI87
(dp3149
sI88
(dp3150
sI89
(dp3151
sI90
(dp3152
sI91
(dp3153
sI92
(dp3154
sI93
(dp3155
sI94
(dp3156
sI95
(dp3157
sI96
(dp3158
sI97
(dp3159
sI98
(dp3160
sI99
(dp3161
ssI68
(dp3162
I50
g2433
sI51
g2482
sI52
g2530
sI53
g2577
sI54
g2623
sI55
g2668
sI56
g2712
sI57
g2755
sI58
g2797
sI59
g2838
sI60
g2878
sI61
g2917
sI62
g2955
sI63
g2992
sI64
g3028
sI65
g3063
sI66
g3097
sI67
g3130
sI69
(dp3163
sI70
(dp3164
sI71
(dp3165
sI72
(dp3166
sI73
(dp3167
sI74
(dp3168
sI75
(dp3169
sI76
(dp3170
sI77
(dp3171
sI78
(dp3172
sI79
(dp3173
sI80
(dp3174
sI81
(dp3175
sI82
(dp3176
sI83
(dp3177
sI84
(dp3178
sI85
(dp3179
sI86
(dp3180
sI87
(dp3181
sI88
(dp3182
sI89
(dp3183
sI90
(dp3184
sI91
(dp3185
sI92
(dp3186
sI93
(dp3187
sI94
(dp3188
sI95
(dp3189
sI96
(dp3190
sI97
(dp3191
sI98
(dp3192
sI99
(dp3193
ssI69
(dp3194
I50
g2434
sI51
g2483
sI52
g2531
sI53
g2578
sI54
g2624
sI55
g2669
sI56
g2713
sI57
g2756
sI58
g2798
sI59
g2839
sI60
g2879
sI61
g2918
sI62
g2956
sI63
g2993
sI64
g3029
sI65
g3064
sI66
g3098
sI67
g3131
sI68
g3163
sI70
(dp3195
sI71
(dp3196
sI72
(dp3197
sI73
(dp3198
sI74
(dp3199
sI75
(dp3200
sI76
(dp3201
sI77
(dp3202
sI78
(dp3203
sI79
(dp3204
sI80
(dp3205
sI81
(dp3206
sI82
(dp3207
sI83
(dp3208
sI84
(dp3209
sI85
(dp3210
sI86
(dp3211
sI87
(dp3212
sI88
(dp3213
sI89
(dp3214
sI90
(dp3215
sI91
(dp3216
sI92
(dp3217
sI93
(dp3218
sI94
(dp3219
sI95
(dp3220
sI96
(dp3221
sI97
(dp3222
sI98
(dp3223
sI99
(dp3224
ssI70
(dp3225
I50
g2435
sI51
g2484
sI52
g2532
sI53
g2579
sI54
g2625
sI55
g2670
sI56
g2714
sI57
g2757
sI58
g2799
sI59
g2840
sI60
g2880
sI61
g2919
sI62
g2957
sI63
g2994
sI64
g3030
sI65
g3065
sI66
g3099
sI67
g3132
sI68
g3164
sI69
g3195
sI71
(dp3226
sI72
(dp3227
sI73
(dp3228
sI74
(dp3229
sI75
(dp3230
sI76
(dp3231
sI77
(dp3232
sI78
(dp3233
sI79
(dp3234
sI80
(dp3235
sI81
(dp3236
sI82
(dp3237
sI83
(dp3238
sI84
(dp3239
sI85
(dp3240
sI86
(dp3241
sI87
(dp3242
sI88
(dp3243
sI89
(dp3244
sI90
(dp3245
sI91
(dp3246
sI92
(dp3247
sI93
(dp3248
sI94
(dp3249
sI95
(dp3250
sI96
(dp3251
sI97
(dp3252
sI98
(dp3253
sI99
(dp3254
ssI71
(dp3255
I50
g2436
sI51
g2485
sI52
g2533
sI53
g2580
sI54
g2626
sI55
g2671
sI56
g2715
sI57
g2758
sI58
g2800
sI59
g2841
sI60
g2881
sI61
g2920
sI62
g2958
sI63
g2995
sI64
g3031
sI65
g3066
sI66
g3100
sI67
g3133
sI68
g3165
sI69
g3196
sI70
g3226
sI72
(dp3256
sI73
(dp3257
sI74
(dp3258
sI75
(dp3259
sI76
(dp3260
sI77
(dp3261
sI78
(dp3262
sI79
(dp3263
sI80
(dp3264
sI81
(dp3265
sI82
(dp3266
sI83
(dp3267
sI84
(dp3268
sI85
(dp3269
sI86
(dp3270
sI87
(dp3271
sI88
(dp3272
sI89
(dp3273
sI90
(dp3274
sI91
(dp3275
sI92
(dp3276
sI93
(dp3277
sI94
(dp3278
sI95
(dp3279
sI96
(dp3280
sI97
(dp3281
sI98
(dp3282
sI99
(dp3283
ssI72
(dp3284
I50
g2437
sI51
g2486
sI52
g2534
sI53
g2581
sI54
g2627
sI55
g2672
sI56
g2716
sI57
g2759
sI58
g2801
sI59
g2842
sI60
g2882
sI61
g2921
sI62
g2959
sI63
g2996
sI64
g3032
sI65
g3067
sI66
g3101
sI67
g3134
sI68
g3166
sI69
g3197
sI70
g3227
sI71
g3256
sI73
(dp3285
sI74
(dp3286
sI75
(dp3287
sI76
(dp3288
sI77
(dp3289
sI78
(dp3290
sI79
(dp3291
sI80
(dp3292
sI81
(dp3293
sI82
(dp3294
sI83
(dp3295
sI84
(dp3296
sI85
(dp3297
sI86
(dp3298
sI87
(dp3299
sI88
(dp3300
sI89
(dp3301
sI90
(dp3302
sI91
(dp3303
sI92
(dp3304
sI93
(dp3305
sI94
(dp3306
sI95
(dp3307
sI96
(dp3308
sI97
(dp3309
sI98
(dp3310
sI99
(dp3311
ssI73
(dp3312
I50
g2438
sI51
g2487
sI52
g2535
sI53
g2582
sI54
g2628
sI55
g2673
sI56
g2717
sI57
g2760
sI58
g2802
sI59
g2843
sI60
g2883
sI61
g2922
sI62
g2960
sI63
g2997
sI64
g3033
sI65
g3068
sI66
g3102
sI67
g3135
sI68
g3167
sI69
g3198
sI70
g3228
sI71
g3257
sI72
g3285
sI74
(dp3313
sI75
(dp3314
sI76
(dp3315
sI77
(dp3316
sI78
(dp3317
sI79
(dp3318
sI80
(dp3319
sI81
(dp3320
sI82
(dp3321
sI83
(dp3322
sI84
(dp3323
sI85
(dp3324
sI86
(dp3325
sI87
(dp3326
sI88
(dp3327
sI89
(dp3328
sI90
(dp3329
sI91
(dp3330
sI92
(dp3331
sI93
(dp3332
sI94
(dp3333
sI95
(dp3334
sI96
(dp3335
sI97
(dp3336
sI98
(dp3337
sI99
(dp3338
ssI74
(dp3339
I50
g2439
sI51
g2488
sI52
g2536
sI53
g2583
sI54
g2629
sI55
g2674
sI56
g2718
sI57
g2761
sI58
g2803
sI59
g2844
sI60
g2884
sI61
g2923
sI62
g2961
sI63
g2998
sI64
g3034
sI65
g3069
sI66
g3103
sI67
g3136
sI68
g3168
sI69
g3199
sI70
g3229
sI71
g3258
sI72
g3286
sI73
g3313
sI75
(dp3340
sI76
(dp3341
sI77
(dp3342
sI78
(dp3343
sI79
(dp3344
sI80
(dp3345
sI81
(dp3346
sI82
(dp3347
sI83
(dp3348
sI84
(dp3349
sI85
(dp3350
sI86
(dp3351
sI87
(dp3352
sI88
(dp3353
sI89
(dp3354
sI90
(dp3355
sI91
(dp3356
sI92
(dp3357
sI93
(dp3358
sI94
(dp3359
sI95
(dp3360
sI96
(dp3361
sI97
(dp3362
sI98
(dp3363
sI99
(dp3364
ssI75
(dp3365
I50
g2440
sI51
g2489
sI52
g2537
sI53
g2584
sI54
g2630
sI55
g2675
sI56
g2719
sI57
g2762
sI58
g2804
sI59
g2845
sI60
g2885
sI61
g2924
sI62
g2962
sI63
g2999
sI64
g3035
sI65
g3070
sI66
g3104
sI67
g3137
sI68
g3169
sI69
g3200
sI70
g3230
sI71
g3259
sI72
g3287
sI73
g3314
sI74
g3340
sI76
(dp3366
sI77
(dp3367
sI78
(dp3368
sI79
(dp3369
sI80
(dp3370
sI81
(dp3371
sI82
(dp3372
sI83
(dp3373
sI84
(dp3374
sI85
(dp3375
sI86
(dp3376
sI87
(dp3377
sI88
(dp3378
sI89
(dp3379
sI90
(dp3380
sI91
(dp3381
sI92
(dp3382
sI93
(dp3383
sI94
(dp3384
sI95
(dp3385
sI96
(dp3386
sI97
(dp3387
sI98
(dp3388
sI99
(dp3389
ssI76
(dp3390
I50
g2441
sI51
g2490
sI52
g2538
sI53
g2585
sI54
g2631
sI55
g2676
sI56
g2720
sI57
g2763
sI58
g2805
sI59
g2846
sI60
g2886
sI61
g2925
sI62
g2963
sI63
g3000
sI64
g3036
sI65
g3071
sI66
g3105
sI67
g3138
sI68
g3170
sI69
g3201
sI70
g3231
sI71
g3260
sI72
g3288
sI73
g3315
sI74
g3341
sI75
g3366
sI77
(dp3391
sI78
(dp3392
sI79
(dp3393
sI80
(dp3394
sI81
(dp3395
sI82
(dp3396
sI83
(dp3397
sI84
(dp3398
sI85
(dp3399
sI86
(dp3400
sI87
(dp3401
sI88
(dp3402
sI89
(dp3403
sI90
(dp3404
sI91
(dp3405
sI92
(dp3406
sI93
(dp3407
sI94
(dp3408
sI95
(dp3409
sI96
(dp3410
sI97
(dp3411
sI98
(dp3412
sI99
(dp3413
ssI77
(dp3414
I50
g2442
sI51
g2491
sI52
g2539
sI53
g2586
sI54
g2632
sI55
g2677
sI56
g2721
sI57
g2764
sI58
g2806
sI59
g2847
sI60
g2887
sI61
g2926
sI62
g2964
sI63
g3001
sI64
g3037
sI65
g3072
sI66
g3106
sI67
g3139
sI68
g3171
sI69
g3202
sI70
g3232
sI71
g3261
sI72
g3289
sI73
g3316
sI74
g3342
sI75
g3367
sI76
g3391
sI78
(dp3415
sI79
(dp3416
sI80
(dp3417
sI81
(dp3418
sI82
(dp3419
sI83
(dp3420
sI84
(dp3421
sI85
(dp3422
sI86
(dp3423
sI87
(dp3424
sI88
(dp3425
sI89
(dp3426
sI90
(dp3427
sI91
(dp3428
sI92
(dp3429
sI93
(dp3430
sI94
(dp3431
sI95
(dp3432
sI96
(dp3433
sI97
(dp3434
sI98
(dp3435
sI99
(dp3436
ssI78
(dp3437
I50
g2443
sI51
g2492
sI52
g2540
sI53
g2587
sI54
g2633
sI55
g2678
sI56
g2722
sI57
g2765
sI58
g2807
sI59
g2848
sI60
g2888
sI61
g2927
sI62
g2965
sI63
g3002
sI64
g3038
sI65
g3073
sI66
g3107
sI67
g3140
sI68
g3172
sI69
g3203
sI70
g3233
sI71
g3262
sI72
g3290
sI73
g3317
sI74
g3343
sI75
g3368
sI76
g3392
sI77
g3415
sI79
(dp3438
sI80
(dp3439
sI81
(dp3440
sI82
(dp3441
sI83
(dp3442
sI84
(dp3443
sI85
(dp3444
sI86
(dp3445
sI87
(dp3446
sI88
(dp3447
sI89
(dp3448
sI90
(dp3449
sI91
(dp3450
sI92
(dp3451
sI93
(dp3452
sI94
(dp3453
sI95
(dp3454
sI96
(dp3455
sI97
(dp3456
sI98
(dp3457
sI99
(dp3458
ssI79
(dp3459
I50
g2444
sI51
g2493
sI52
g2541
sI53
g2588
sI54
g2634
sI55
g2679
sI56
g2723
sI57
g2766
sI58
g2808
sI59
g2849
sI60
g2889
sI61
g2928
sI62
g2966
sI63
g3003
sI64
g3039
sI65
g3074
sI66
g3108
sI67
g3141
sI68
g3173
sI69
g3204
sI70
g3234
sI71
g3263
sI72
g3291
sI73
g3318
sI74
g3344
sI75
g3369
sI76
g3393
sI77
g3416
sI78
g3438
sI80
(dp3460
sI81
(dp3461
sI82
(dp3462
sI83
(dp3463
sI84
(dp3464
sI85
(dp3465
sI86
(dp3466
sI87
(dp3467
sI88
(dp3468
sI89
(dp3469
sI90
(dp3470
sI91
(dp3471
sI92
(dp3472
sI93
(dp3473
sI94
(dp3474
sI95
(dp3475
sI96
(dp3476
sI97
(dp3477
sI98
(dp3478
sI99
(dp3479
ssI80
(dp3480
I50
g2445
sI51
g2494
sI52
g2542
sI53
g2589
sI54
g2635
sI55
g2680
sI56
g2724
sI57
g2767
sI58
g2809
sI59
g2850
sI60
g2890
sI61
g2929
sI62
g2967
sI63
g3004
sI64
g3040
sI65
g3075
sI66
g3109
sI67
g3142
sI68
g3174
sI69
g3205
sI70
g3235
sI71
g3264
sI72
g3292
sI73
g3319
sI74
g3345
sI75
g3370
sI76
g3394
sI77
g3417
sI78
g3439
sI79
g3460
sI81
(dp3481
sI82
(dp3482
sI83
(dp3483
sI84
(dp3484
sI85
(dp3485
sI86
(dp3486
sI87
(dp3487
sI88
(dp3488
sI89
(dp3489
sI90
(dp3490
sI91
(dp3491
sI92
(dp3492
sI93
(dp3493
sI94
(dp3494
sI95
(dp3495
sI96
(dp3496
sI97
(dp3497
sI98
(dp3498
sI99
(dp3499
ssI81
(dp3500
I50
g2446
sI51
g2495
sI52
g2543
sI53
g2590
sI54
g2636
sI55
g2681
sI56
g2725
sI57
g2768
sI58
g2810
sI59
g2851
sI60
g2891
sI61
g2930
sI62
g2968
sI63
g3005
sI64
g3041
sI65
g3076
sI66
g3110
sI67
g3143
sI68
g3175
sI69
g3206
sI70
g3236
sI71
g3265
sI72
g3293
sI73
g3320
sI74
g3346
sI75
g3371
sI76
g3395
sI77
g3418
sI78
g3440
sI79
g3461
sI80
g3481
sI82
(dp3501
sI83
(dp3502
sI84
(dp3503
sI85
(dp3504
sI86
(dp3505
sI87
(dp3506
sI88
(dp3507
sI89
(dp3508
sI90
(dp3509
sI91
(dp3510
sI92
(dp3511
sI93
(dp3512
sI94
(dp3513
sI95
(dp3514
sI96
(dp3515
sI97
(dp3516
sI98
(dp3517
sI99
(dp3518
ssI82
(dp3519
I50
g2447
sI51
g2496
sI52
g2544
sI53
g2591
sI54
g2637
sI55
g2682
sI56
g2726
sI57
g2769
sI58
g2811
sI59
g2852
sI60
g2892
sI61
g2931
sI62
g2969
sI63
g3006
sI64
g3042
sI65
g3077
sI66
g3111
sI67
g3144
sI68
g3176
sI69
g3207
sI70
g3237
sI71
g3266
sI72
g3294
sI73
g3321
sI74
g3347
sI75
g3372
sI76
g3396
sI77
g3419
sI78
g3441
sI79
g3462
sI80
g3482
sI81
g3501
sI83
(dp3520
sI84
(dp3521
sI85
(dp3522
sI86
(dp3523
sI87
(dp3524
sI88
(dp3525
sI89
(dp3526
sI90
(dp3527
sI91
(dp3528
sI92
(dp3529
sI93
(dp3530
sI94
(dp3531
sI95
(dp3532
sI96
(dp3533
sI97
(dp3534
sI98
(dp3535
sI99
(dp3536
ssI83
(dp3537
I50
g2448
sI51
g2497
sI52
g2545
sI53
g2592
sI54
g2638
sI55
g2683
sI56
g2727
sI57
g2770
sI58
g2812
sI59
g2853
sI60
g2893
sI61
g2932
sI62
g2970
sI63
g3007
sI64
g3043
sI65
g3078
sI66
g3112
sI67
g3145
sI68
g3177
sI69
g3208
sI70
g3238
sI71
g3267
sI72
g3295
sI73
g3322
sI74
g3348
sI75
g3373
sI76
g3397
sI77
g3420
sI78
g3442
sI79
g3463
sI80
g3483
sI81
g3502
sI82
g3520
sI84
(dp3538
sI85
(dp3539
sI86
(dp3540
sI87
(dp3541
sI88
(dp3542
sI89
(dp3543
sI90
(dp3544
sI91
(dp3545
sI92
(dp3546
sI93
(dp3547
sI94
(dp3548
sI95
(dp3549
sI96
(dp3550
sI97
(dp3551
sI98
(dp3552
sI99
(dp3553
ssI84
(dp3554
I50
g2449
sI51
g2498
sI52
g2546
sI53
g2593
sI54
g2639
sI55
g2684
sI56
g2728
sI57
g2771
sI58
g2813
sI59
g2854
sI60
g2894
sI61
g2933
sI62
g2971
sI63
g3008
sI64
g3044
sI65
g3079
sI66
g3113
sI67
g3146
sI68
g3178
sI69
g3209
sI70
g3239
sI71
g3268
sI72
g3296
sI73
g3323
sI74
g3349
sI75
g3374
sI76
g3398
sI77
g3421
sI78
g3443
sI79
g3464
sI80
g3484
sI81
g3503
sI82
g3521
sI83
g3538
sI85
(dp3555
sI86
(dp3556
sI87
(dp3557
sI88
(dp3558
sI89
(dp3559
sI90
(dp3560
sI91
(dp3561
sI92
(dp3562
sI93
(dp3563
sI94
(dp3564
sI95
(dp3565
sI96
(dp3566
sI97
(dp3567
sI98
(dp3568
sI99
(dp3569
ssI85
(dp3570
I50
g2450
sI51
g2499
sI52
g2547
sI53
g2594
sI54
g2640
sI55
g2685
sI56
g2729
sI57
g2772
sI58
g2814
sI59
g2855
sI60
g2895
sI61
g2934
sI62
g2972
sI63
g3009
sI64
g3045
sI65
g3080
sI66
g3114
sI67
g3147
sI68
g3179
sI69
g3210
sI70
g3240
sI71
g3269
sI72
g3297
sI73
g3324
sI74
g3350
sI75
g3375
sI76
g3399
sI77
g3422
sI78
g3444
sI79
g3465
sI80
g3485
sI81
g3504
sI82
g3522
sI83
g3539
sI84
g3555
sI86
(dp3571
sI87
(dp3572
sI88
(dp3573
sI89
(dp3574
sI90
(dp3575
sI91
(dp3576
sI92
(dp3577
sI93
(dp3578
sI94
(dp3579
sI95
(dp3580
sI96
(dp3581
sI97
(dp3582
sI98
(dp3583
sI99
(dp3584
ssI86
(dp3585
I50
g2451
sI51
g2500
sI52
g2548
sI53
g2595
sI54
g2641
sI55
g2686
sI56
g2730
sI57
g2773
sI58
g2815
sI59
g2856
sI60
g2896
sI61
g2935
sI62
g2973
sI63
g3010
sI64
g3046
sI65
g3081
sI66
g3115
sI67
g3148
sI68
g3180
sI69
g3211
sI70
g3241
sI71
g3270
sI72
g3298
sI73
g3325
sI74
g3351
sI75
g3376
sI76
g3400
sI77
g3423
sI78
g3445
sI79
g3466
sI80
g3486
sI81
g3505
sI82
g3523
sI83
g3540
sI84
g3556
sI85
g3571
sI87
(dp3586
sI88
(dp3587
sI89
(dp3588
sI90
(dp3589
sI91
(dp3590
sI92
(dp3591
sI93
(dp3592
sI94
(dp3593
sI95
(dp3594
sI96
(dp3595
sI97
(dp3596
sI98
(dp3597
sI99
(dp3598
ssI87
(dp3599
I50
g2452
sI51
g2501
sI52
g2549
sI53
g2596
sI54
g2642
sI55
g2687
sI56
g2731
sI57
g2774
sI58
g2816
sI59
g2857
sI60
g2897
sI61
g2936
sI62
g2974
sI63
g3011
sI64
g3047
sI65
g3082
sI66
g3116
sI67
g3149
sI68
g3181
sI69
g3212
sI70
g3242
sI71
g3271
sI72
g3299
sI73
g3326
sI74
g3352
sI75
g3377
sI76
g3401
sI77
g3424
sI78
g3446
sI79
g3467
sI80
g3487
sI81
g3506
sI82
g3524
sI83
g3541
sI84
g3557
sI85
g3572
sI86
g3586
sI88
(dp3600
sI89
(dp3601
sI90
(dp3602
sI91
(dp3603
sI92
(dp3604
sI93
(dp3605
sI94
(dp3606
sI95
(dp3607
sI96
(dp3608
sI97
(dp3609
sI98
(dp3610
sI99
(dp3611
ssI88
(dp3612
I50
g2453
sI51
g2502
sI52
g2550
sI53
g2597
sI54
g2643
sI55
g2688
sI56
g2732
sI57
g2775
sI58
g2817
sI59
g2858
sI60
g2898
sI61
g2937
sI62
g2975
sI63
g3012
sI64
g3048
sI65
g3083
sI66
g3117
sI67
g3150
sI68
g3182
sI69
g3213
sI70
g3243
sI71
g3272
sI72
g3300
sI73
g3327
sI74
g3353
sI75
g3378
sI76
g3402
sI77
g3425
sI78
g3447
sI79
g3468
sI80
g3488
sI81
g3507
sI82
g3525
sI83
g3542
sI84
g3558
sI85
g3573
sI86
g3587
sI87
g3600
sI89
(dp3613
sI90
(dp3614
sI91
(dp3615
sI92
(dp3616
sI93
(dp3617
sI94
(dp3618
sI95
(dp3619
sI96
(dp3620
sI97
(dp3621
sI98
(dp3622
sI99
(dp3623
ssI89
(dp3624
I50
g2454
sI51
g2503
sI52
g2551
sI53
g2598
sI54
g2644
sI55
g2689
sI56
g2733
sI57
g2776
sI58
g2818
sI59
g2859
sI60
g2899
sI61
g2938
sI62
g2976
sI63
g3013
sI64
g3049
sI65
g3084
sI66
g3118
sI67
g3151
sI68
g3183
sI69
g3214
sI70
g3244
sI71
g3273
sI72
g3301
sI73
g3328
sI74
g3354
sI75
g3379
sI76
g3403
sI77
g3426
sI78
g3448
sI79
g3469
sI80
g3489
sI81
g3508
sI82
g3526
sI83
g3543
sI84
g3559
sI85
g3574
sI86
g3588
sI87
g3601
sI88
g3613
sI90
(dp3625
sI91
(dp3626
sI92
(dp3627
sI93
(dp3628
sI94
(dp3629
sI95
(dp3630
sI96
(dp3631
sI97
(dp3632
sI98
(dp3633
sI99
(dp3634
ssI90
(dp3635
I50
g2455
sI51
g2504
sI52
g2552
sI53
g2599
sI54
g2645
sI55
g2690
sI56
g2734
sI57
g2777
sI58
g2819
sI59
g2860
sI60
g2900
sI61
g2939
sI62
g2977
sI63
g3014
sI64
g3050
sI65
g3085
sI66
g3119
sI67
g3152
sI68
g3184
sI69
g3215
sI70
g3245
sI71
g3274
sI72
g3302
sI73
g3329
sI74
g3355
sI75
g3380
sI76
g3404
sI77
g3427
sI78
g3449
sI79
g3470
sI80
g3490
sI81
g3509
sI82
g3527
sI83
g3544
sI84
g3560
sI85
g3575
sI86
g3589
sI87
g3602
sI88
g3614
sI89
g3625
sI91
(dp3636
sI92
(dp3637
sI93
(dp3638
sI94
(dp3639
sI95
(dp3640
sI96
(dp3641
sI97
(dp3642
sI98
(dp3643
sI99
(dp3644
ssI91
(dp3645
I50
g2456
sI51
g2505
sI52
g2553
sI53
g2600
sI54
g2646
sI55
g2691
sI56
g2735
sI57
g2778
sI58
g2820
sI59
g2861
sI60
g2901
sI61
g2940
sI62
g2978
sI63
g3015
sI64
g3051
sI65
g3086
sI66
g3120
sI67
g3153
sI68
g3185
sI69
g3216
sI70
g3246
sI71
g3275
sI72
g3303
sI73
g3330
sI74
g3356
sI75
g3381
sI76
g3405
sI77
g3428
sI78
g3450
sI79
g3471
sI80
g3491
sI81
g3510
sI82
g3528
sI83
g3545
sI84
g3561
sI85
g3576
sI86
g3590
sI87
g3603
sI88
g3615
sI89
g3626
sI90
g3636
sI92
(dp3646
sI93
(dp3647
sI94
(dp3648
sI95
(dp3649
sI96
(dp3650
sI97
(dp3651
sI98
(dp3652
sI99
(dp3653
ssI92
(dp3654
I50
g2457
sI51
g2506
sI52
g2554
sI53
g2601
sI54
g2647
sI55
g2692
sI56
g2736
sI57
g2779
sI58
g2821
sI59
g2862
sI60
g2902
sI61
g2941
sI62
g2979
sI63
g3016
sI64
g3052
sI65
g3087
sI66
g3121
sI67
g3154
sI68
g3186
sI69
g3217
sI70
g3247
sI71
g3276
sI72
g3304
sI73
g3331
sI74
g3357
sI75
g3382
sI76
g3406
sI77
g3429
sI78
g3451
sI79
g3472
sI80
g3492
sI81
g3511
sI82
g3529
sI83
g3546
sI84
g3562
sI85
g3577
sI86
g3591
sI87
g3604
sI88
g3616
sI89
g3627
sI90
g3637
sI91
g3646
sI93
(dp3655
sI94
(dp3656
sI95
(dp3657
sI96
(dp3658
sI97
(dp3659
sI98
(dp3660
sI99
(dp3661
ssI93
(dp3662
I50
g2458
sI51
g2507
sI52
g2555
sI53
g2602
sI54
g2648
sI55
g2693
sI56
g2737
sI57
g2780
sI58
g2822
sI59
g2863
sI60
g2903
sI61
g2942
sI62
g2980
sI63
g3017
sI64
g3053
sI65
g3088
sI66
g3122
sI67
g3155
sI68
g3187
sI69
g3218
sI70
g3248
sI71
g3277
sI72
g3305
sI73
g3332
sI74
g3358
sI75
g3383
sI76
g3407
sI77
g3430
sI78
g3452
sI79
g3473
sI80
g3493
sI81
g3512
sI82
g3530
sI83
g3547
sI84
g3563
sI85
g3578
sI86
g3592
sI87
g3605
sI88
g3617
sI89
g3628
sI90
g3638
sI91
g3647
sI92
g3655
sI94
(dp3663
sI95
(dp3664
sI96
(dp3665
sI97
(dp3666
sI98
(dp3667
sI99
(dp3668
ssI94
(dp3669
I50
g2459
sI51
g2508
sI52
g2556
sI53
g2603
sI54
g2649
sI55
g2694
sI56
g2738
sI57
g2781
sI58
g2823
sI59
g2864
sI60
g2904
sI61
g2943
sI62
g2981
sI63
g3018
sI64
g3054
sI65
g3089
sI66
g3123
sI67
g3156
sI68
g3188
sI69
g3219
sI70
g3249
sI71
g3278
sI72
g3306
sI73
g3333
sI74
g3359
sI75
g3384
sI76
g3408
sI77
g3431
sI78
g3453
sI79
g3474
sI80
g3494
sI81
g3513
sI82
g3531
sI83
g3548
sI84
g3564
sI85
g3579
sI86
g3593
sI87
g3606
sI88
g3618
sI89
g3629
sI90
g3639
sI91
g3648
sI92
g3656
sI93
g3663
sI95
(dp3670
sI96
(dp3671
sI97
(dp3672
sI98
(dp3673
sI99
(dp3674
ssI95
(dp3675
I50
g2460
sI51
g2509
sI52
g2557
sI53
g2604
sI54
g2650
sI55
g2695
sI56
g2739
sI57
g2782
sI58
g2824
sI59
g2865
sI60
g2905
sI61
g2944
sI62
g2982
sI63
g3019
sI64
g3055
sI65
g3090
sI66
g3124
sI67
g3157
sI68
g3189
sI69
g3220
sI70
g3250
sI71
g3279
sI72
g3307
sI73
g3334
sI74
g3360
sI75
g3385
sI76
g3409
sI77
g3432
sI78
g3454
sI79
g3475
sI80
g3495
sI81
g3514
sI82
g3532
sI83
g3549
sI84
g3565
sI85
g3580
sI86
g3594
sI87
g3607
sI88
g3619
sI89
g3630
sI90
g3640
sI91
g3649
sI92
g3657
sI93
g3664
sI94
g3670
sI96
(dp3676
sI97
(dp3677
sI98
(dp3678
sI99
(dp3679
ssI96
(dp3680
I50
g2461
sI51
g2510
sI52
g2558
sI53
g2605
sI54
g2651
sI55
g2696
sI56
g2740
sI57
g2783
sI58
g2825
sI59
g2866
sI60
g2906
sI61
g2945
sI62
g2983
sI63
g3020
sI64
g3056
sI65
g3091
sI66
g3125
sI67
g3158
sI68
g3190
sI69
g3221
sI70
g3251
sI71
g3280
sI72
g3308
sI73
g3335
sI74
g3361
sI75
g3386
sI76
g3410
sI77
g3433
sI78
g3455
sI79
g3476
sI80
g3496
sI81
g3515
sI82
g3533
sI83
g3550
sI84
g3566
sI85
g3581
sI86
g3595
sI87
g3608
sI88
g3620
sI89
g3631
sI90
g3641
sI91
g3650
sI92
g3658
sI93
g3665
sI94
g3671
sI95
g3676
sI97
(dp3681
sI98
(dp3682
sI99
(dp3683
ssI97
(dp3684
I50
g2462
sI51
g2511
sI52
g2559
sI53
g2606
sI54
g2652
sI55
g2697
sI56
g2741
sI57
g2784
sI58
g2826
sI59
g2867
sI60
g2907
sI61
g2946
sI62
g2984
sI63
g3021
sI64
g3057
sI65
g3092
sI66
g3126
sI67
g3159
sI68
g3191
sI69
g3222
sI70
g3252
sI71
g3281
sI72
g3309
sI73
g3336
sI74
g3362
sI75
g3387
sI76
g3411
sI77
g3434
sI78
g3456
sI79
g3477
sI80
g3497
sI81
g3516
sI82
g3534
sI83
g3551
sI84
g3567
sI85
g3582
sI86
g3596
sI87
g3609
sI88
g3621
sI89
g3632
sI90
g3642
sI91
g3651
sI92
g3659
sI93
g3666
sI94
g3672
sI95
g3677
sI96
g3681
sI98
(dp3685
sI99
(dp3686
ssI98
(dp3687
I50
g2463
sI51
g2512
sI52
g2560
sI53
g2607
sI54
g2653
sI55
g2698
sI56
g2742
sI57
g2785
sI58
g2827
sI59
g2868
sI60
g2908
sI61
g2947
sI62
g2985
sI63
g3022
sI64
g3058
sI65
g3093
sI66
g3127
sI67
g3160
sI68
g3192
sI69
g3223
sI70
g3253
sI71
g3282
sI72
g3310
sI73
g3337
sI74
g3363
sI75
g3388
sI76
g3412
sI77
g3435
sI78
g3457
sI79
g3478
sI80
g3498
sI81
g3517
sI82
g3535
sI83
g3552
sI84
g3568
sI85
g3583
sI86
g3597
sI87
g3610
sI88
g3622
sI89
g3633
sI90
g3643
sI91
g3652
sI92
g3660
sI93
g3667
sI94
g3673
sI95
g3678
sI96
g3682
sI97
g3685
sI99
(dp3688
ssI99
(dp3689
I50
g2464
sI51
g2513
sI52
g2561
sI53
g2608
sI54
g2654
sI55
g2699
sI56
g2743
sI57
g2786
sI58
g2828
sI59
g2869
sI60
g2909
sI61
g2948
sI62
g2986
sI63
g3023
sI64
g3059
sI65
g3094
sI66
g3128
sI67
g3161
sI68
g3193
sI69
g3224
sI70
g3254
sI71
g3283
sI72
g3311
sI73
g3338
sI74
g3364
sI75
g3389
sI76
g3413
sI77
g3436
sI78
g3458
sI79
g3479
sI80
g3499
sI81
g3518
sI82
g3536
sI83
g3553
sI84
g3569
sI85
g3584
sI86
g3598
sI87
g3611
sI88
g3623
sI89
g3634
sI90
g3644
sI91
g3653
sI92
g3661
sI93
g3668
sI94
g3674
sI95
g3679
sI96
g3683
sI97
g3686
sI98
g3688
sssg415
g1138
sbas.